(dp1
Velectivire
p2
VElectivire
p3
sVanchorshot
p4
VAnchor Shot
p5
sVheracross
p6
VHeracross
p7
sVcolorchange
p8
VColor Change
p9
sVlucarionite
p10
VLucarionite
p11
sVpalkia
p12
VPalkia
p13
sVchatter
p14
VChatter
p15
sValakazite
p16
VAlakazite
p17
sVtickle
p18
VTickle
p19
sVarceuselectric
p20
VArceus-Electric
p21
sVabra
p22
VAbra
p23
sVexeggutoralola
p24
VExeggutor-Alola
p25
sVrecycle
p26
VRecycle
p27
sVtimerball
p28
VTimer Ball
p29
sVsteeliumz
p30
VSteelium Z
p31
sVsharpbeak
p32
VSharp Beak
p33
sVmewtwonitex
p34
VMewtwonite X
p35
sVmewtwonitey
p36
VMewtwonite Y
p37
sVquickclaw
p38
VQuick Claw
p39
sVoricoriopompom
p40
VOricorio-Pom-Pom
p41
sVneuroforce
p42
VNeuroforce
p43
sVdoubleslap
p44
VDouble Slap
p45
sVlurantis
p46
VLurantis
p47
sVeviolite
p48
VEviolite
p49
sVprotean
p50
VProtean
p51
sVsquirtle
p52
VSquirtle
p53
sVdiglettalola
p54
VDiglett-Alola
p55
sVdarmanitanzen
p56
VDarmanitan-Zen
p57
sVnastyplot
p58
VNasty Plot
p59
sVwormadam
p60
VWormadam
p61
sVmiracleberry
p62
VMiracle Berry
p63
sVaggronmega
p64
VAggron-Mega
p65
sVwhirlwind
p66
VWhirlwind
p67
sVplumefossil
p68
VPlume Fossil
p69
sVcherrim
p70
VCherrim
p71
sVhiddenpowerelectric
p72
VHidden Power Electric
p73
sVhiddenpowerfire
p74
VHidden Power Fire
p75
sVguillotine
p76
VGuillotine
p77
sVlevitate
p78
VLevitate
p79
sVgyaradosite
p80
VGyaradosite
p81
sVpomegberry
p82
VPomeg Berry
p83
sVpokestargiant
p84
VPokestar Giant
p85
sVmasquerain
p86
VMasquerain
p87
sVaccelerock
p88
VAccelerock
p89
sVthunder
p90
VThunder
p91
sVhaze
p92
VHaze
p93
sVdarkgem
p94
VDark Gem
p95
sVpokestarmt2
p96
VPokestar MT2
p97
sVfraxure
p98
VFraxure
p99
sVmoldbreaker
p100
VMold Breaker
p101
sVcrunch
p102
VCrunch
p103
sVrindoberry
p104
VRindo Berry
p105
sVlatiosite
p106
VLatiosite
p107
sVreflecttype
p108
VReflect Type
p109
sVsnivy
p110
VSnivy
p111
sVmefirst
p112
VMe First
p113
sVstarfberry
p114
VStarf Berry
p115
sVscizorite
p116
VScizorite
p117
sVmew
p118
VMew
p119
sVpursuit
p120
VPursuit
p121
sVheadsmash
p122
VHead Smash
p123
sVaftermath
p124
VAftermath
p125
sVmintberry
p126
VMint Berry
p127
sVclawitzer
p128
VClawitzer
p129
sVpixilate
p130
VPixilate
p131
sVtornadustherian
p132
VTornadus-Therian
p133
sVmoonstone
p134
VMoon Stone
p135
sVlunatone
p136
VLunatone
p137
sVpunishment
p138
VPunishment
p139
sVpoisontouch
p140
VPoison Touch
p141
sVfeebas
p142
VFeebas
p143
sVneedlearm
p144
VNeedle Arm
p145
sValtarianite
p146
VAltarianite
p147
sVblastburn
p148
VBlast Burn
p149
sVhonchkrow
p150
VHonchkrow
p151
sVtactite
p152
VTactite
p153
sVschooling
p154
VSchooling
p155
sVtirtouga
p156
VTirtouga
p157
sVampharos
p158
VAmpharos
p159
sVdusclops
p160
VDusclops
p161
sVpoisonbarb
p162
VPoison Barb
p163
sVmorningsun
p164
VMorning Sun
p165
sVfreezedry
p166
VFreeze-Dry
p167
sVmandibuzz
p168
VMandibuzz
p169
sVoverheat
p170
VOverheat
p171
sVwishiwashischool
p172
VWishiwashi-School
p173
sVspiritomb
p174
VSpiritomb
p175
sVvoltabsorb
p176
VVolt Absorb
p177
sVpurugly
p178
VPurugly
p179
sVshiftgear
p180
VShift Gear
p181
sVvenomoth
p182
VVenomoth
p183
sVfirstimpression
p184
VFirst Impression
p185
sVcastformrainy
p186
VCastform-Rainy
p187
sVbigroot
p188
VBig Root
p189
sVcobalion
p190
VCobalion
p191
sVgardevoir
p192
VGardevoir
p193
sVsheerforce
p194
VSheer Force
p195
sVmagnetrise
p196
VMagnet Rise
p197
sVnaive
p198
VNaive
p199
sVreuniclus
p200
VReuniclus
p201
sVbeastboost
p202
VBeast Boost
p203
sVsceptilemega
p204
VSceptile-Mega
p205
sVlunge
p206
VLunge
p207
sVcharjabug
p208
VCharjabug
p209
sVsteelmemory
p210
VSteel Memory
p211
sVbeastball
p212
VBeast Ball
p213
sVkitsunoh
p214
VKitsunoh
p215
sVarceusbug
p216
VArceus-Bug
p217
sVgranbull
p218
VGranbull
p219
sVmeditite
p220
VMeditite
p221
sVgengarmega
p222
VGengar-Mega
p223
sVpidgeot
p224
VPidgeot
p225
sVstakataka
p226
VStakataka
p227
sVsilvallypoison
p228
VSilvally-Poison
p229
sVtangledfeet
p230
VTangled Feet
p231
sVigglybuff
p232
VIgglybuff
p233
sVonix
p234
VOnix
p235
sVgrimer
p236
VGrimer
p237
sVrototiller
p238
VRototiller
p239
sVlucariomega
p240
VLucario-Mega
p241
sVbugbite
p242
VBug Bite
p243
sVpoisongas
p244
VPoison Gas
p245
sVmakuhita
p246
VMakuhita
p247
sVfriendball
p248
VFriend Ball
p249
sVwigglytuff
p250
VWigglytuff
p251
sVattract
p252
VAttract
p253
sVcharizarditey
p254
VCharizardite Y
p255
sVcharizarditex
p256
VCharizardite X
p257
sVhyperspacehole
p258
VHyperspace Hole
p259
sVskydrop
p260
VSky Drop
p261
sVcrabhammer
p262
VCrabhammer
p263
sVtoxic
p264
VToxic
p265
sVcastformsunny
p266
VCastform-Sunny
p267
sVrotomheat
p268
VRotom-Heat
p269
sVsportball
p270
VSport Ball
p271
sVpoisonpowder
p272
VPoison Powder
p273
sVredcard
p274
VRed Card
p275
sVmodest
p276
VModest
p277
sVtynamo
p278
VTynamo
p279
sVliquidvoice
p280
VLiquid Voice
p281
sVcherubi
p282
VCherubi
p283
sVbuzzybuzz
p284
VBuzzy Buzz
p285
sVpokestarufo2
p286
VPokestar UFO-2
p287
sVpoweranklet
p288
VPower Anklet
p289
sVgumshoostotem
p290
VGumshoos-Totem
p291
sVspookyplate
p292
VSpooky Plate
p293
sVhasty
p294
VHasty
p295
sVraichualola
p296
VRaichu-Alola
p297
sVentei
p298
VEntei
p299
sVdecidueye
p300
VDecidueye
p301
sVarceussteel
p302
VArceus-Steel
p303
sVtogedemarutotem
p304
VTogedemaru-Totem
p305
sVcobaberry
p306
VCoba Berry
p307
sVlaggingtail
p308
VLagging Tail
p309
sVfinalgambit
p310
VFinal Gambit
p311
sVrapidash
p312
VRapidash
p313
sVblacephalon
p314
VBlacephalon
p315
sVdoubleteam
p316
VDouble Team
p317
sVlumineon
p318
VLumineon
p319
sVgligar
p320
VGligar
p321
sVshielddust
p322
VShield Dust
p323
sVmagicbounce
p324
VMagic Bounce
p325
sVfakeout
p326
VFake Out
p327
sVsludge
p328
VSludge
p329
sVvenusaur
p330
VVenusaur
p331
sVphione
p332
VPhione
p333
sVmindplate
p334
VMind Plate
p335
sVgrassyseed
p336
VGrassy Seed
p337
sVflameburst
p338
VFlame Burst
p339
sVzapplate
p340
VZap Plate
p341
sVmunna
p342
VMunna
p343
sVdragonscale
p344
VDragon Scale
p345
sVjawfossil
p346
VJaw Fossil
p347
sVnihilego
p348
VNihilego
p349
sVmimikyu
p350
VMimikyu
p351
sVkricketot
p352
VKricketot
p353
sVgroundiumz
p354
VGroundium Z
p355
sVroost
p356
VRoost
p357
sVfurycutter
p358
VFury Cutter
p359
sVirontail
p360
VIron Tail
p361
sVclangingscales
p362
VClanging Scales
p363
sVheatmor
p364
VHeatmor
p365
sVeggbomb
p366
VEgg Bomb
p367
sVluxray
p368
VLuxray
p369
sVpayback
p370
VPayback
p371
sVexcadrill
p372
VExcadrill
p373
sVgloom
p374
VGloom
p375
sVgluttony
p376
VGluttony
p377
sVtapukoko
p378
VTapu Koko
p379
sVvulpix
p380
VVulpix
p381
sVcradily
p382
VCradily
p383
sVwimpod
p384
VWimpod
p385
sVthunderfang
p386
VThunder Fang
p387
sVblastoisemega
p388
VBlastoise-Mega
p389
sVespeon
p390
VEspeon
p391
sVtogedemaru
p392
VTogedemaru
p393
sVmultitype
p394
VMultitype
p395
sVflameorb
p396
VFlame Orb
p397
sVpanpour
p398
VPanpour
p399
sVhiddenpowerdragon
p400
VHidden Power Dragon
p401
sVfairywind
p402
VFairy Wind
p403
sVgothorita
p404
VGothorita
p405
sVomastar
p406
VOmastar
p407
sVwalrein
p408
VWalrein
p409
sVsawsbuck
p410
VSawsbuck
p411
sVtruant
p412
VTruant
p413
sVqualotberry
p414
VQualot Berry
p415
sVflowergift
p416
VFlower Gift
p417
sVsuperluck
p418
VSuper Luck
p419
sVpsychic
p420
VPsychic
p421
sVvulpixalola
p422
VVulpix-Alola
p423
sVwaterstone
p424
VWater Stone
p425
sVkasibberry
p426
VKasib Berry
p427
sVribombee
p428
VRibombee
p429
sVargalis
p430
VArgalis
p431
sVcottonguard
p432
VCotton Guard
p433
sVtornadus
p434
VTornadus
p435
sVshedshell
p436
VShed Shell
p437
sVbarrier
p438
VBarrier
p439
sVleftovers
p440
VLeftovers
p441
sVcoreenforcer
p442
VCore Enforcer
p443
sVsynchronoise
p444
VSynchronoise
p445
sVzippyzap
p446
VZippy Zap
p447
sVbestow
p448
VBestow
p449
sVtrumpcard
p450
VTrump Card
p451
sVsweetveil
p452
VSweet Veil
p453
sViceball
p454
VIce Ball
p455
sVgalladite
p456
VGalladite
p457
sVshiftry
p458
VShiftry
p459
sVfletchinder
p460
VFletchinder
p461
sVbeartic
p462
VBeartic
p463
sVkyuremblack
p464
VKyurem-Black
p465
sVsonicboom
p466
VSonic Boom
p467
sVpikachupartner
p468
VPikachu-Partner
p469
sVfightinggem
p470
VFighting Gem
p471
sVgroudonprimal
p472
VGroudon-Primal
p473
sVlatias
p474
VLatias
p475
sVfilter
p476
VFilter
p477
sVsteelixmega
p478
VSteelix-Mega
p479
sVtapuniumz
p480
VTapunium Z
p481
sVcherishball
p482
VCherish Ball
p483
sVcheriberry
p484
VCheri Berry
p485
sVfightingmemory
p486
VFighting Memory
p487
sVnaughty
p488
VNaughty
p489
sVseedflare
p490
VSeed Flare
p491
sVhydrocannon
p492
VHydro Cannon
p493
sVmagneticflux
p494
VMagnetic Flux
p495
sVdeoxys
p496
VDeoxys
p497
sVursaring
p498
VUrsaring
p499
sVlatiasmega
p500
VLatias-Mega
p501
sVrattataalola
p502
VRattata-Alola
p503
sVinstruct
p504
VInstruct
p505
sVembirch
p506
VEmbirch
p507
sVshieldon
p508
VShieldon
p509
sVslugma
p510
VSlugma
p511
sVheracrossmega
p512
VHeracross-Mega
p513
sVwaveincense
p514
VWave Incense
p515
sVmanectite
p516
VManectite
p517
sVinnardsout
p518
VInnards Out
p519
sVpikachupopstar
p520
VPikachu-Pop-Star
p521
sVmudsdale
p522
VMudsdale
p523
sVaircutter
p524
VAir Cutter
p525
sVgiratinaorigin
p526
VGiratina-Origin
p527
sVgrowlithe
p528
VGrowlithe
p529
sVinferno
p530
VInferno
p531
sVtwister
p532
VTwister
p533
sVarceusdragon
p534
VArceus-Dragon
p535
sVflamethrower
p536
VFlamethrower
p537
sVtoxicorb
p538
VToxic Orb
p539
sVfairylock
p540
VFairy Lock
p541
sVrockclimb
p542
VRock Climb
p543
sVwonderroom
p544
VWonder Room
p545
sVmegakick
p546
VMega Kick
p547
sVdoomdesire
p548
VDoom Desire
p549
sVmirrormove
p550
VMirror Move
p551
sVsandshrew
p552
VSandshrew
p553
sVpolitoed
p554
VPolitoed
p555
sVminun
p556
VMinun
p557
sVbelueberry
p558
VBelue Berry
p559
sVgeodudealola
p560
VGeodude-Alola
p561
sVfloralhealing
p562
VFloral Healing
p563
sVfiriumz
p564
VFirium Z
p565
sVendure
p566
VEndure
p567
sVswiftswim
p568
VSwift Swim
p569
sVshellbell
p570
VShell Bell
p571
sVminus
p572
VMinus
p573
sVmeowth
p574
VMeowth
p575
sVprankster
p576
VPrankster
p577
sVwacanberry
p578
VWacan Berry
p579
sVsylveon
p580
VSylveon
p581
sVpayapaberry
p582
VPayapa Berry
p583
sVclosecombat
p584
VClose Combat
p585
sVsilvallydark
p586
VSilvally-Dark
p587
sVmetalclaw
p588
VMetal Claw
p589
sVseel
p590
VSeel
p591
sVblastoise
p592
VBlastoise
p593
sVstrength
p594
VStrength
p595
sVchingling
p596
VChingling
p597
sVgothita
p598
VGothita
p599
sVyungoos
p600
VYungoos
p601
sVcraftyshield
p602
VCrafty Shield
p603
sVgyroball
p604
VGyro Ball
p605
sVrhyperior
p606
VRhyperior
p607
sVgolbat
p608
VGolbat
p609
sVgrassyterrain
p610
VGrassy Terrain
p611
sVdeoxysspeed
p612
VDeoxys-Speed
p613
sVpikachucosplay
p614
VPikachu-Cosplay
p615
sVshadowforce
p616
VShadow Force
p617
sVcoil
p618
VCoil
p619
sVdrought
p620
VDrought
p621
sVfeint
p622
VFeint
p623
sVcosmicpower
p624
VCosmic Power
p625
sVempoleon
p626
VEmpoleon
p627
sVthousandwaves
p628
VThousand Waves
p629
sVdunsparce
p630
VDunsparce
p631
sVnincada
p632
VNincada
p633
sVconstrict
p634
VConstrict
p635
sVvileplume
p636
VVileplume
p637
sVraticate
p638
VRaticate
p639
sVcinccino
p640
VCinccino
p641
sVjirachi
p642
VJirachi
p643
sVgolduck
p644
VGolduck
p645
sVaurorabeam
p646
VAurora Beam
p647
sVarmorfossil
p648
VArmor Fossil
p649
sVstickyweb
p650
VSticky Web
p651
sVlycanrocdusk
p652
VLycanroc-Dusk
p653
sVtogekiss
p654
VTogekiss
p655
sVhippopotas
p656
VHippopotas
p657
sVdialga
p658
VDialga
p659
sVlastresort
p660
VLast Resort
p661
sVpsychicterrain
p662
VPsychic Terrain
p663
sVbulletpunch
p664
VBullet Punch
p665
sVicegem
p666
VIce Gem
p667
sVspite
p668
VSpite
p669
sVcarbink
p670
VCarbink
p671
sVwaterpulse
p672
VWater Pulse
p673
sVstoutland
p674
VStoutland
p675
sVgenesissupernova
p676
VGenesis Supernova
p677
sVbidoof
p678
VBidoof
p679
sVsyclant
p680
VSyclant
p681
sVhaunter
p682
VHaunter
p683
sVweedle
p684
VWeedle
p685
sVaerilate
p686
VAerilate
p687
sVhoneygather
p688
VHoney Gather
p689
sVmachop
p690
VMachop
p691
sVmetalpowder
p692
VMetal Powder
p693
sVguardianofalola
p694
VGuardian of Alola
p695
sVdusknoir
p696
VDusknoir
p697
sVmeditate
p698
VMeditate
p699
sVreversal
p700
VReversal
p701
sVlunardance
p702
VLunar Dance
p703
sVcaribolt
p704
VCaribolt
p705
sVpumpkaboosmall
p706
VPumpkaboo-Small
p707
sVtentacool
p708
VTentacool
p709
sVpokeball
p710
VPoke Ball
p711
sVsilvally
p712
VSilvally
p713
sVdiancie
p714
VDiancie
p715
sVplasmanta
p716
VPlasmanta
p717
sVnosepass
p718
VNosepass
p719
sVmawilite
p720
VMawilite
p721
sVlaxincense
p722
VLax Incense
p723
sVmagneton
p724
VMagneton
p725
sVstickyhold
p726
VSticky Hold
p727
sVbeatup
p728
VBeat Up
p729
sVleafblade
p730
VLeaf Blade
p731
sVfluffy
p732
VFluffy
p733
sVserperior
p734
VSerperior
p735
sVlopunnite
p736
VLopunnite
p737
sVwooper
p738
VWooper
p739
sVforretress
p740
VForretress
p741
sVmindreader
p742
VMind Reader
p743
sVseaincense
p744
VSea Incense
p745
sVsimisage
p746
VSimisage
p747
sVsolarblade
p748
VSolar Blade
p749
sVarcheops
p750
VArcheops
p751
sVheavymetal
p752
VHeavy Metal
p753
sVwormadamsandy
p754
VWormadam-Sandy
p755
sVpsychiumz
p756
VPsychium Z
p757
sVspiritshackle
p758
VSpirit Shackle
p759
sVcontinentalcrush
p760
VContinental Crush
p761
sVmuscleband
p762
VMuscle Band
p763
sVtwinkletackle
p764
VTwinkle Tackle
p765
sVmatblock
p766
VMat Block
p767
sVmoongeistbeam
p768
VMoongeist Beam
p769
sVdoduo
p770
VDoduo
p771
sVmuk
p772
VMuk
p773
sVnecrozmadawnwings
p774
VNecrozma-Dawn-Wings
p775
sVmotordrive
p776
VMotor Drive
p777
sVconfusion
p778
VConfusion
p779
sVslowpoke
p780
VSlowpoke
p781
sVfrostbreath
p782
VFrost Breath
p783
sVvirizion
p784
VVirizion
p785
sVspinda
p786
VSpinda
p787
sVcosmoem
p788
VCosmoem
p789
sVmeadowplate
p790
VMeadow Plate
p791
sVparasect
p792
VParasect
p793
sVgourgeistsmall
p794
VGourgeist-Small
p795
sVadamantorb
p796
VAdamant Orb
p797
sVprotect
p798
VProtect
p799
sVplaynice
p800
VPlay Nice
p801
sVsamurott
p802
VSamurott
p803
sVmenacingmoonrazemaelstrom
p804
VMenacing Moonraze Maelstrom
p805
sVreceiver
p806
VReceiver
p807
sVmawile
p808
VMawile
p809
sVchimecho
p810
VChimecho
p811
sVpetayaberry
p812
VPetaya Berry
p813
sVdoublade
p814
VDoublade
p815
sVsailfossil
p816
VSail Fossil
p817
sVdeltastream
p818
VDelta Stream
p819
sVluckychant
p820
VLucky Chant
p821
sVleppaberry
p822
VLeppa Berry
p823
sVlick
p824
VLick
p825
sVoblivious
p826
VOblivious
p827
sVfierydance
p828
VFiery Dance
p829
sVfloatzel
p830
VFloatzel
p831
sVsmackdown
p832
VSmack Down
p833
sVcopycat
p834
VCopycat
p835
sVsalamencite
p836
VSalamencite
p837
sVbuneary
p838
VBuneary
p839
sVrevelationdance
p840
VRevelation Dance
p841
sVshockdrive
p842
VShock Drive
p843
sVnightdaze
p844
VNight Daze
p845
sVfriendguard
p846
VFriend Guard
p847
sVscaryface
p848
VScary Face
p849
sVmarowakalolatotem
p850
VMarowak-Alola-Totem
p851
sVsteamroller
p852
VSteamroller
p853
sVsalazzle
p854
VSalazzle
p855
sVwimpout
p856
VWimp Out
p857
sVkakuna
p858
VKakuna
p859
sVpowertrick
p860
VPower Trick
p861
sVyanma
p862
VYanma
p863
sVsilvallyfire
p864
VSilvally-Fire
p865
sVchatot
p866
VChatot
p867
sVaciddownpour
p868
VAcid Downpour
p869
sVmarshtomp
p870
VMarshtomp
p871
sVgurdurr
p872
VGurdurr
p873
sVsoundproof
p874
VSoundproof
p875
sVslam
p876
VSlam
p877
sVthrash
p878
VThrash
p879
sVsandrush
p880
VSand Rush
p881
sVsliggoo
p882
VSliggoo
p883
sVtotodile
p884
VTotodile
p885
sVgarchompite
p886
VGarchompite
p887
sVslowbro
p888
VSlowbro
p889
sVprismaticlaser
p890
VPrismatic Laser
p891
sVnaganadel
p892
VNaganadel
p893
sValakazam
p894
VAlakazam
p895
sVbinacle
p896
VBinacle
p897
sVhitmonlee
p898
VHitmonlee
p899
sVmarowakalola
p900
VMarowak-Alola
p901
sVnevermeltice
p902
VNever-Melt Ice
p903
sVgrowl
p904
VGrowl
p905
sViciumz
p906
VIcium Z
p907
sVaguavberry
p908
VAguav Berry
p909
sVdrilbur
p910
VDrilbur
p911
sVcameruptite
p912
VCameruptite
p913
sVwhippeddream
p914
VWhipped Dream
p915
sVralts
p916
VRalts
p917
sVpupitar
p918
VPupitar
p919
sVkyurem
p920
VKyurem
p921
sVslowking
p922
VSlowking
p923
sVpowerherb
p924
VPower Herb
p925
sVnoivern
p926
VNoivern
p927
sVwaterfall
p928
VWaterfall
p929
sVdewgong
p930
VDewgong
p931
sVflyiniumz
p932
VFlyinium Z
p933
sVkirlia
p934
VKirlia
p935
sVknockoff
p936
VKnock Off
p937
sVoctazooka
p938
VOctazooka
p939
sVcawmodore
p940
VCawmodore
p941
sVpikachubelle
p942
VPikachu-Belle
p943
sVluxuryball
p944
VLuxury Ball
p945
sVhydration
p946
VHydration
p947
sVkrokorok
p948
VKrokorok
p949
sVamoonguss
p950
VAmoonguss
p951
sVsilvallygrass
p952
VSilvally-Grass
p953
sVquilladin
p954
VQuilladin
p955
sVshellarmor
p956
VShell Armor
p957
sVpoliwag
p958
VPoliwag
p959
sVslushrush
p960
VSlush Rush
p961
sVmetalcoat
p962
VMetal Coat
p963
sVcompoundeyes
p964
VCompound Eyes
p965
sVthickclub
p966
VThick Club
p967
sVdugtrioalola
p968
VDugtrio-Alola
p969
sVdisguise
p970
VDisguise
p971
sVscizor
p972
VScizor
p973
sVfloetteeternal
p974
VFloette-Eternal
p975
sVkerfluffle
p976
VKerfluffle
p977
sVsilcoon
p978
VSilcoon
p979
sVbuggem
p980
VBug Gem
p981
sVdragonmemory
p982
VDragon Memory
p983
sVoshawott
p984
VOshawott
p985
sVtorterra
p986
VTorterra
p987
sVtogepi
p988
VTogepi
p989
sVdomefossil
p990
VDome Fossil
p991
sVadamant
p992
VAdamant
p993
sVlowkick
p994
VLow Kick
p995
sVhealbell
p996
VHeal Bell
p997
sVmirrorshot
p998
VMirror Shot
p999
sVtapufini
p1000
VTapu Fini
p1001
sVlickitung
p1002
VLickitung
p1003
sVpassimian
p1004
VPassimian
p1005
sVlatiosmega
p1006
VLatios-Mega
p1007
sVdragonrush
p1008
VDragon Rush
p1009
sVredorb
p1010
VRed Orb
p1011
sVspinarak
p1012
VSpinarak
p1013
sVdiggersby
p1014
VDiggersby
p1015
sVsilverwind
p1016
VSilver Wind
p1017
sVpaleowave
p1018
VPaleo Wave
p1019
sVludicolo
p1020
VLudicolo
p1021
sVditto
p1022
VDitto
p1023
sVcirclethrow
p1024
VCircle Throw
p1025
sVfullmetalbody
p1026
VFull Metal Body
p1027
sValloutpummeling
p1028
VAll-Out Pummeling
p1029
sVinfernooverdrive
p1030
VInferno Overdrive
p1031
sVthunderstone
p1032
VThunder Stone
p1033
sVhiddenpowerpoison
p1034
VHidden Power Poison
p1035
sVflatter
p1036
VFlatter
p1037
sVtoxicspikes
p1038
VToxic Spikes
p1039
sVfirepledge
p1040
VFire Pledge
p1041
sVnoctowl
p1042
VNoctowl
p1043
sVcornnberry
p1044
VCornn Berry
p1045
sVskullfossil
p1046
VSkull Fossil
p1047
sVcheekpouch
p1048
VCheek Pouch
p1049
sVuproar
p1050
VUproar
p1051
sVgoldberry
p1052
VGold Berry
p1053
sVferrothorn
p1054
VFerrothorn
p1055
sVexpertbelt
p1056
VExpert Belt
p1057
sVholdhands
p1058
VHold Hands
p1059
sVpikachustarter
p1060
VPikachu-Starter
p1061
sVcrosschop
p1062
VCross Chop
p1063
sVpsyshock
p1064
VPsyshock
p1065
sVicyrock
p1066
VIcy Rock
p1067
sVsoulheart
p1068
VSoul-Heart
p1069
sVtrevenant
p1070
VTrevenant
p1071
sVabsorbbulb
p1072
VAbsorb Bulb
p1073
sVbold
p1074
VBold
p1075
sVgunkshot
p1076
VGunk Shot
p1077
sVmagearna
p1078
VMagearna
p1079
sVarceusfire
p1080
VArceus-Fire
p1081
sVgarchomp
p1082
VGarchomp
p1083
sVgeodude
p1084
VGeodude
p1085
sVlightscreen
p1086
VLight Screen
p1087
sVwhimsicott
p1088
VWhimsicott
p1089
sVlavaplume
p1090
VLava Plume
p1091
sVkeeneye
p1092
VKeen Eye
p1093
sVsimipour
p1094
VSimipour
p1095
sVtrumbeak
p1096
VTrumbeak
p1097
sVautotomize
p1098
VAutotomize
p1099
sVspikecannon
p1100
VSpike Cannon
p1101
sVnecturna
p1102
VNecturna
p1103
sVplus
p1104
VPlus
p1105
sVnidoqueen
p1106
VNidoqueen
p1107
sVsapsipper
p1108
VSap Sipper
p1109
sVpikachulibre
p1110
VPikachu-Libre
p1111
sVthunderpunch
p1112
VThunder Punch
p1113
sVhornleech
p1114
VHorn Leech
p1115
sVbraixen
p1116
VBraixen
p1117
sVdarkvoid
p1118
VDark Void
p1119
sVsupersonicskystrike
p1120
VSupersonic Skystrike
p1121
sVhoundour
p1122
VHoundour
p1123
sVdualchop
p1124
VDual Chop
p1125
sVpinsirmega
p1126
VPinsir-Mega
p1127
sVfoulplay
p1128
VFoul Play
p1129
sVscyther
p1130
VScyther
p1131
sVgalewings
p1132
VGale Wings
p1133
sVstormdrain
p1134
VStorm Drain
p1135
sVseadra
p1136
VSeadra
p1137
sVovergrow
p1138
VOvergrow
p1139
sVprismscale
p1140
VPrism Scale
p1141
sVbronzor
p1142
VBronzor
p1143
sVwrap
p1144
VWrap
p1145
sVrebble
p1146
VRebble
p1147
sVterrainextender
p1148
VTerrain Extender
p1149
sVcorsola
p1150
VCorsola
p1151
sVtransform
p1152
VTransform
p1153
sVklefki
p1154
VKlefki
p1155
sVrowapberry
p1156
VRowap Berry
p1157
sVquirky
p1158
VQuirky
p1159
sVquickattack
p1160
VQuick Attack
p1161
sVsynthesis
p1162
VSynthesis
p1163
sVmultiscale
p1164
VMultiscale
p1165
sVgroundgem
p1166
VGround Gem
p1167
sVreshiram
p1168
VReshiram
p1169
sVrocksmash
p1170
VRock Smash
p1171
sVvolttackle
p1172
VVolt Tackle
p1173
sVghostgem
p1174
VGhost Gem
p1175
sVleafage
p1176
VLeafage
p1177
sVroughskin
p1178
VRough Skin
p1179
sVsafeguard
p1180
VSafeguard
p1181
sVsmoothrock
p1182
VSmooth Rock
p1183
sVcosmog
p1184
VCosmog
p1185
sVgearup
p1186
VGear Up
p1187
sVbide
p1188
VBide
p1189
sVaurabreak
p1190
VAura Break
p1191
sVaurorus
p1192
VAurorus
p1193
sVlightofruin
p1194
VLight of Ruin
p1195
sVstokedsparksurfer
p1196
VStoked Sparksurfer
p1197
sVholdback
p1198
VHold Back
p1199
sVpoweruppunch
p1200
VPower-Up Punch
p1201
sVunnerve
p1202
VUnnerve
p1203
sVparentalbond
p1204
VParental Bond
p1205
sVlunaliumz
p1206
VLunalium Z
p1207
sVferaligatr
p1208
VFeraligatr
p1209
sVpokestarbrycenman
p1210
VPokestar Brycen-Man
p1211
sVoddish
p1212
VOddish
p1213
sVleer
p1214
VLeer
p1215
sVmagby
p1216
VMagby
p1217
sVtypenull
p1218
VType: Null
p1219
sVswadloon
p1220
VSwadloon
p1221
sVvibrava
p1222
VVibrava
p1223
sVuxie
p1224
VUxie
p1225
sVsmoochum
p1226
VSmoochum
p1227
sVlansatberry
p1228
VLansat Berry
p1229
sVbutterfree
p1230
VButterfree
p1231
sVferroseed
p1232
VFerroseed
p1233
sVgoomy
p1234
VGoomy
p1235
sVamaura
p1236
VAmaura
p1237
sVminiormeteor
p1238
VMinior-Meteor
p1239
sVclawfossil
p1240
VClaw Fossil
p1241
sVdischarge
p1242
VDischarge
p1243
sVkyogre
p1244
VKyogre
p1245
sVstrengthsap
p1246
VStrength Sap
p1247
sVpoisonpoint
p1248
VPoison Point
p1249
sVmelmetal
p1250
VMelmetal
p1251
sVhiddenpowerground
p1252
VHidden Power Ground
p1253
sVarceuspoison
p1254
VArceus-Poison
p1255
sVliechiberry
p1256
VLiechi Berry
p1257
sVlillipup
p1258
VLillipup
p1259
sVsilvallyflying
p1260
VSilvally-Flying
p1261
sVspectralthief
p1262
VSpectral Thief
p1263
sVflareboost
p1264
VFlare Boost
p1265
sVmareep
p1266
VMareep
p1267
sVoccaberry
p1268
VOcca Berry
p1269
sVironfist
p1270
VIron Fist
p1271
sVserious
p1272
VSerious
p1273
sVmegadrain
p1274
VMega Drain
p1275
sVsalacberry
p1276
VSalac Berry
p1277
sVpolkadotbow
p1278
VPolkadot Bow
p1279
sVsnubbull
p1280
VSnubbull
p1281
sVsandveil
p1282
VSand Veil
p1283
sVabsolite
p1284
VAbsolite
p1285
sVbonsly
p1286
VBonsly
p1287
sVnecrozma
p1288
VNecrozma
p1289
sVcelebi
p1290
VCelebi
p1291
sVavalanche
p1292
VAvalanche
p1293
sVshadowsneak
p1294
VShadow Sneak
p1295
sVsuctioncups
p1296
VSuction Cups
p1297
sVwaterbubble
p1298
VWater Bubble
p1299
sVsuperpower
p1300
VSuperpower
p1301
sVchinchou
p1302
VChinchou
p1303
sVanticipation
p1304
VAnticipation
p1305
sVweezing
p1306
VWeezing
p1307
sVdragonpulse
p1308
VDragon Pulse
p1309
sVelectroball
p1310
VElectro Ball
p1311
sVflash
p1312
VFlash
p1313
sVnetball
p1314
VNet Ball
p1315
sVcharge
p1316
VCharge
p1317
sVquash
p1318
VQuash
p1319
sVsnorlax
p1320
VSnorlax
p1321
sVblackholeeclipse
p1322
VBlack Hole Eclipse
p1323
sVunburden
p1324
VUnburden
p1325
sVrufflet
p1326
VRufflet
p1327
sVmachamp
p1328
VMachamp
p1329
sVkricketune
p1330
VKricketune
p1331
sVtailslap
p1332
VTail Slap
p1333
sVchilanberry
p1334
VChilan Berry
p1335
sVlopunny
p1336
VLopunny
p1337
sVtoxicplate
p1338
VToxic Plate
p1339
sVtoucannon
p1340
VToucannon
p1341
sVpikachualola
p1342
VPikachu-Alola
p1343
sVsplinteredstormshards
p1344
VSplintered Stormshards
p1345
sVskyuppercut
p1346
VSky Uppercut
p1347
sVmimejr
p1348
VMime Jr.
p1349
sVguzzlord
p1350
VGuzzlord
p1351
sVpoisonsting
p1352
VPoison Sting
p1353
sVdig
p1354
VDig
p1355
sVfocusblast
p1356
VFocus Blast
p1357
sVmesprit
p1358
VMesprit
p1359
sVmagnet
p1360
VMagnet
p1361
sVbanettemega
p1362
VBanette-Mega
p1363
sVround
p1364
VRound
p1365
sVunaware
p1366
VUnaware
p1367
sVduskball
p1368
VDusk Ball
p1369
sVfalseswipe
p1370
VFalse Swipe
p1371
sVtalonflame
p1372
VTalonflame
p1373
sVleafeon
p1374
VLeafeon
p1375
sVpokestarufopropu2
p1376
VPokestar UFO-PropU2
p1377
sVveeveevolley
p1378
VVeevee Volley
p1379
sVminior
p1380
VMinior
p1381
sVzorua
p1382
VZorua
p1383
sVfairymemory
p1384
VFairy Memory
p1385
sVvitalthrow
p1386
VVital Throw
p1387
sVsubstitute
p1388
VSubstitute
p1389
sVcurse
p1390
VCurse
p1391
sVfocusband
p1392
VFocus Band
p1393
sVmoltres
p1394
VMoltres
p1395
sVpasshoberry
p1396
VPassho Berry
p1397
sVtanglinghair
p1398
VTangling Hair
p1399
sVdragondance
p1400
VDragon Dance
p1401
sVaxew
p1402
VAxew
p1403
sVgolemalola
p1404
VGolem-Alola
p1405
sVkecleon
p1406
VKecleon
p1407
sVglameow
p1408
VGlameow
p1409
sVaeroblast
p1410
VAeroblast
p1411
sVwartortle
p1412
VWartortle
p1413
sVexplosion
p1414
VExplosion
p1415
sVmiracleeye
p1416
VMiracle Eye
p1417
sVpumpkaboo
p1418
VPumpkaboo
p1419
sVsimisear
p1420
VSimisear
p1421
sVhoopa
p1422
VHoopa
p1423
sVtropius
p1424
VTropius
p1425
sVgroundmemory
p1426
VGround Memory
p1427
sVmysticwater
p1428
VMystic Water
p1429
sVearthquake
p1430
VEarthquake
p1431
sVgastroacid
p1432
VGastro Acid
p1433
sVejectbutton
p1434
VEject Button
p1435
sVbeedrillmega
p1436
VBeedrill-Mega
p1437
sVexploud
p1438
VExploud
p1439
sVglitzyglow
p1440
VGlitzy Glow
p1441
sVaraquanidtotem
p1442
VAraquanid-Totem
p1443
sVdiveball
p1444
VDive Ball
p1445
sVsawk
p1446
VSawk
p1447
sVsandygast
p1448
VSandygast
p1449
sVdedenne
p1450
VDedenne
p1451
sVdragonite
p1452
VDragonite
p1453
sVbagon
p1454
VBagon
p1455
sVregenerator
p1456
VRegenerator
p1457
sViondeluge
p1458
VIon Deluge
p1459
sVlarvesta
p1460
VLarvesta
p1461
sVmudslap
p1462
VMud-Slap
p1463
sVhawlucha
p1464
VHawlucha
p1465
sVmagicroom
p1466
VMagic Room
p1467
sVampharosite
p1468
VAmpharosite
p1469
sVdesolateland
p1470
VDesolate Land
p1471
sVpinsirite
p1472
VPinsirite
p1473
sVheavyslam
p1474
VHeavy Slam
p1475
sVpinmissile
p1476
VPin Missile
p1477
sVkyogreprimal
p1478
VKyogre-Primal
p1479
sVbanefulbunker
p1480
VBaneful Bunker
p1481
sVtakedown
p1482
VTake Down
p1483
sVcaptivate
p1484
VCaptivate
p1485
sVflamecharge
p1486
VFlame Charge
p1487
sVswagger
p1488
VSwagger
p1489
sVxatu
p1490
VXatu
p1491
sVrockslide
p1492
VRock Slide
p1493
sVcaterpie
p1494
VCaterpie
p1495
sVhypno
p1496
VHypno
p1497
sVscratchet
p1498
VScratchet
p1499
sVbottlecap
p1500
VBottle Cap
p1501
sVelectrike
p1502
VElectrike
p1503
sVfletchling
p1504
VFletchling
p1505
sVseismictoss
p1506
VSeismic Toss
p1507
sVfly
p1508
VFly
p1509
sVuturn
p1510
VU-turn
p1511
sVflygon
p1512
VFlygon
p1513
sVsandstorm
p1514
VSandstorm
p1515
sVswampertite
p1516
VSwampertite
p1517
sVswablu
p1518
VSwablu
p1519
sVcatastropika
p1520
VCatastropika
p1521
sVspikyshield
p1522
VSpiky Shield
p1523
sVscolipede
p1524
VScolipede
p1525
sVdwebble
p1526
VDwebble
p1527
sVpignite
p1528
VPignite
p1529
sVsolarpower
p1530
VSolar Power
p1531
sVvespiquen
p1532
VVespiquen
p1533
sVpalpitoad
p1534
VPalpitoad
p1535
sVchilldrive
p1536
VChill Drive
p1537
sVnormalize
p1538
VNormalize
p1539
sVbanette
p1540
VBanette
p1541
sVtearfullook
p1542
VTearful Look
p1543
sVtailwind
p1544
VTailwind
p1545
sVdianciemega
p1546
VDiancie-Mega
p1547
sVwideguard
p1548
VWide Guard
p1549
sVeelektrik
p1550
VEelektrik
p1551
sVlightthatburnsthesky
p1552
VLight That Burns the Sky
p1553
sVsandforce
p1554
VSand Force
p1555
sVdarkestlariat
p1556
VDarkest Lariat
p1557
sVpowerbelt
p1558
VPower Belt
p1559
sVelectricterrain
p1560
VElectric Terrain
p1561
sVoctillery
p1562
VOctillery
p1563
sVselfdestruct
p1564
VSelf-Destruct
p1565
sVstantler
p1566
VStantler
p1567
sVeeveestarter
p1568
VEevee-Starter
p1569
sVdive
p1570
VDive
p1571
sVarmaldo
p1572
VArmaldo
p1573
sVdarkmemory
p1574
VDark Memory
p1575
sVwiseglasses
p1576
VWise Glasses
p1577
sVmilkdrink
p1578
VMilk Drink
p1579
sVpowerwhip
p1580
VPower Whip
p1581
sVancientpower
p1582
VAncient Power
p1583
sVletssnuggleforever
p1584
VLet's Snuggle Forever
p1585
sVcryogonal
p1586
VCryogonal
p1587
sVsupersonic
p1588
VSupersonic
p1589
sVpsychicfangs
p1590
VPsychic Fangs
p1591
sVdelibird
p1592
VDelibird
p1593
sVelectricsurge
p1594
VElectric Surge
p1595
sVmalamar
p1596
VMalamar
p1597
sVpurify
p1598
VPurify
p1599
sVshinx
p1600
VShinx
p1601
sVclamperl
p1602
VClamperl
p1603
sVlitwick
p1604
VLitwick
p1605
sVslowbronite
p1606
VSlowbronite
p1607
sVriolu
p1608
VRiolu
p1609
sVlugia
p1610
VLugia
p1611
sVbulletseed
p1612
VBullet Seed
p1613
sVbubblebeam
p1614
VBubble Beam
p1615
sVpachirisu
p1616
VPachirisu
p1617
sVpoipole
p1618
VPoipole
p1619
sVtoxicthread
p1620
VToxic Thread
p1621
sVarcanine
p1622
VArcanine
p1623
sVsneasel
p1624
VSneasel
p1625
sVgrassknot
p1626
VGrass Knot
p1627
sVauroraveil
p1628
VAurora Veil
p1629
sVklutz
p1630
VKlutz
p1631
sVpokestarspirit
p1632
VPokestar Spirit
p1633
sVbulldoze
p1634
VBulldoze
p1635
sVfocusenergy
p1636
VFocus Energy
p1637
sVmimikyutotem
p1638
VMimikyu-Totem
p1639
sVprimordialsea
p1640
VPrimordial Sea
p1641
sVsnugglow
p1642
VSnugglow
p1643
sVkabuto
p1644
VKabuto
p1645
sVmail
p1646
VMail
p1647
sVfuryswipes
p1648
VFury Swipes
p1649
sVlonely
p1650
VLonely
p1651
sVfling
p1652
VFling
p1653
sVrattled
p1654
VRattled
p1655
sVinsomnia
p1656
VInsomnia
p1657
sVwatermemory
p1658
VWater Memory
p1659
sVfusionflare
p1660
VFusion Flare
p1661
sVsafariball
p1662
VSafari Ball
p1663
sVeffectspore
p1664
VEffect Spore
p1665
sVboomburst
p1666
VBoomburst
p1667
sVregice
p1668
VRegice
p1669
sVlinoone
p1670
VLinoone
p1671
sValtariamega
p1672
VAltaria-Mega
p1673
sVpowerconstruct
p1674
VPower Construct
p1675
sVsynchronize
p1676
VSynchronize
p1677
sVsilvallyghost
p1678
VSilvally-Ghost
p1679
sVmantine
p1680
VMantine
p1681
sVglalie
p1682
VGlalie
p1683
sVpsyduck
p1684
VPsyduck
p1685
sVmentalherb
p1686
VMental Herb
p1687
sVswalot
p1688
VSwalot
p1689
sVgenesectburn
p1690
VGenesect-Burn
p1691
sVporygonz
p1692
VPorygon-Z
p1693
sVstrugglebug
p1694
VStruggle Bug
p1695
sVpersian
p1696
VPersian
p1697
sVcorkscrewcrash
p1698
VCorkscrew Crash
p1699
sVsilvallybug
p1700
VSilvally-Bug
p1701
sVsinisterarrowraid
p1702
VSinister Arrow Raid
p1703
sVsandslashalola
p1704
VSandslash-Alola
p1705
sVlycanroc
p1706
VLycanroc
p1707
sVshaymin
p1708
VShaymin
p1709
sVpidove
p1710
VPidove
p1711
sVrockiumz
p1712
VRockium Z
p1713
sVskillswap
p1714
VSkill Swap
p1715
sVtorracat
p1716
VTorracat
p1717
sVassurance
p1718
VAssurance
p1719
sVpoochyena
p1720
VPoochyena
p1721
sVpokestarblackdoor
p1722
VPokestar Black Door
p1723
sVporygon2
p1724
VPorygon2
p1725
sVtoxicroak
p1726
VToxicroak
p1727
sVsteelwing
p1728
VSteel Wing
p1729
sVunown
p1730
VUnown
p1731
sVbitterberry
p1732
VBitter Berry
p1733
sVpoliwhirl
p1734
VPoliwhirl
p1735
sVpetilil
p1736
VPetilil
p1737
sVtelepathy
p1738
VTelepathy
p1739
sVstufful
p1740
VStufful
p1741
sVnidorino
p1742
VNidorino
p1743
sVmeloettapirouette
p1744
VMeloetta-Pirouette
p1745
sVnidorina
p1746
VNidorina
p1747
sVhypnosis
p1748
VHypnosis
p1749
sVdurinberry
p1750
VDurin Berry
p1751
sVdragonrage
p1752
VDragon Rage
p1753
sVjolteon
p1754
VJolteon
p1755
sVdefensecurl
p1756
VDefense Curl
p1757
sVnecturine
p1758
VNecturine
p1759
sVrocktomb
p1760
VRock Tomb
p1761
sVchikorita
p1762
VChikorita
p1763
sVrockyhelmet
p1764
VRocky Helmet
p1765
sVspewpa
p1766
VSpewpa
p1767
sVjabocaberry
p1768
VJaboca Berry
p1769
sVhoppip
p1770
VHoppip
p1771
sVleafstorm
p1772
VLeaf Storm
p1773
sVpalossand
p1774
VPalossand
p1775
sViceshard
p1776
VIce Shard
p1777
sVgiratina
p1778
VGiratina
p1779
sVteravolt
p1780
VTeravolt
p1781
sVbite
p1782
VBite
p1783
sVduosion
p1784
VDuosion
p1785
sVaromatherapy
p1786
VAromatherapy
p1787
sVsleeptalk
p1788
VSleep Talk
p1789
sVsappyseed
p1790
VSappy Seed
p1791
sVconfuseray
p1792
VConfuse Ray
p1793
sVdrainpunch
p1794
VDrain Punch
p1795
sVgliscor
p1796
VGliscor
p1797
sVseedot
p1798
VSeedot
p1799
sVsnatch
p1800
VSnatch
p1801
sVslakoth
p1802
VSlakoth
p1803
sVbunnelby
p1804
VBunnelby
p1805
sVdrapion
p1806
VDrapion
p1807
sVpeck
p1808
VPeck
p1809
sVchespin
p1810
VChespin
p1811
sVghostmemory
p1812
VGhost Memory
p1813
sVkartana
p1814
VKartana
p1815
sVearthplate
p1816
VEarth Plate
p1817
sVfloatyfall
p1818
VFloaty Fall
p1819
sVsalazzletotem
p1820
VSalazzle-Totem
p1821
sVgarbodor
p1822
VGarbodor
p1823
sVtrickortreat
p1824
VTrick-or-Treat
p1825
sVcubone
p1826
VCubone
p1827
sVhiddenpowerrock
p1828
VHidden Power Rock
p1829
sVrazzberry
p1830
VRazz Berry
p1831
sVchlorophyll
p1832
VChlorophyll
p1833
sVpluffle
p1834
VPluffle
p1835
sVsilvallyrock
p1836
VSilvally-Rock
p1837
sViceberry
p1838
VIce Berry
p1839
sVsandstream
p1840
VSand Stream
p1841
sVledyba
p1842
VLedyba
p1843
sVaquatail
p1844
VAqua Tail
p1845
sVarceusdark
p1846
VArceus-Dark
p1847
sVkrilowatt
p1848
VKrilowatt
p1849
sVrecover
p1850
VRecover
p1851
sVflyingmemory
p1852
VFlying Memory
p1853
sVconversion
p1854
VConversion
p1855
sVelectrode
p1856
VElectrode
p1857
sVreckless
p1858
VReckless
p1859
sVhiddenpowerdark
p1860
VHidden Power Dark
p1861
sVmetalsound
p1862
VMetal Sound
p1863
sVarghonaut
p1864
VArghonaut
p1865
sVbeedrill
p1866
VBeedrill
p1867
sVsurf
p1868
VSurf
p1869
sVgriseousorb
p1870
VGriseous Orb
p1871
sVneverendingnightmare
p1872
VNever-Ending Nightmare
p1873
sVmountaineer
p1874
VMountaineer
p1875
sVstunky
p1876
VStunky
p1877
sVtrace
p1878
VTrace
p1879
sVquagsire
p1880
VQuagsire
p1881
sVgeargrind
p1882
VGear Grind
p1883
sVdarkrai
p1884
VDarkrai
p1885
sVbarrage
p1886
VBarrage
p1887
sVbonemerang
p1888
VBonemerang
p1889
sVultranecroziumz
p1890
VUltranecrozium Z
p1891
sVstunfisk
p1892
VStunfisk
p1893
sVadaptability
p1894
VAdaptability
p1895
sVespurr
p1896
VEspurr
p1897
sVleaftornado
p1898
VLeaf Tornado
p1899
sVhyperfang
p1900
VHyper Fang
p1901
sVdracoplate
p1902
VDraco Plate
p1903
sVhyperspacefury
p1904
VHyperspace Fury
p1905
sVelectirizer
p1906
VElectirizer
p1907
sVmollux
p1908
VMollux
p1909
sVmuddywater
p1910
VMuddy Water
p1911
sVmothim
p1912
VMothim
p1913
sVlifeorb
p1914
VLife Orb
p1915
sVdelphox
p1916
VDelphox
p1917
sVbrattler
p1918
VBrattler
p1919
sVhakamoo
p1920
VHakamo-o
p1921
sVtintedlens
p1922
VTinted Lens
p1923
sVgolurk
p1924
VGolurk
p1925
sVfigyberry
p1926
VFigy Berry
p1927
sVgoodra
p1928
VGoodra
p1929
sVrevenankh
p1930
VRevenankh
p1931
sVvolbeat
p1932
VVolbeat
p1933
sVpulverizingpancake
p1934
VPulverizing Pancake
p1935
sVemergencyexit
p1936
VEmergency Exit
p1937
sVupgrade
p1938
VUp-Grade
p1939
sVburndrive
p1940
VBurn Drive
p1941
sVpartingshot
p1942
VParting Shot
p1943
sVpatrat
p1944
VPatrat
p1945
sVacupressure
p1946
VAcupressure
p1947
sVanalytic
p1948
VAnalytic
p1949
sVsilvallysteel
p1950
VSilvally-Steel
p1951
sVprobopass
p1952
VProbopass
p1953
sVoutrage
p1954
VOutrage
p1955
sVleavanny
p1956
VLeavanny
p1957
sVlycanrocmidnight
p1958
VLycanroc-Midnight
p1959
sVkinesis
p1960
VKinesis
p1961
sVweaknesspolicy
p1962
VWeakness Policy
p1963
sVstomp
p1964
VStomp
p1965
sVpersianalola
p1966
VPersian-Alola
p1967
sVmimikiumz
p1968
VMimikium Z
p1969
sVboneclub
p1970
VBone Club
p1971
sVtelekinesis
p1972
VTelekinesis
p1973
sVmoxie
p1974
VMoxie
p1975
sVcelebrate
p1976
VCelebrate
p1977
sVshuppet
p1978
VShuppet
p1979
sVparkball
p1980
VPark Ball
p1981
sVzeraora
p1982
VZeraora
p1983
sVcupra
p1984
VCupra
p1985
sVlatiasite
p1986
VLatiasite
p1987
sVcrucibelle
p1988
VCrucibelle
p1989
sVwonderskin
p1990
VWonder Skin
p1991
sVhiddenpowerfighting
p1992
VHidden Power Fighting
p1993
sVimposter
p1994
VImposter
p1995
sVspore
p1996
VSpore
p1997
sVnecrozmaultra
p1998
VNecrozma-Ultra
p1999
sVkommoniumz
p2000
VKommonium Z
p2001
sVforesight
p2002
VForesight
p2003
sVfirestone
p2004
VFire Stone
p2005
sVdetect
p2006
VDetect
p2007
sVsteadfast
p2008
VSteadfast
p2009
sVlimber
p2010
VLimber
p2011
sVbatonpass
p2012
VBaton Pass
p2013
sVbeakblast
p2014
VBeak Blast
p2015
sVforecast
p2016
VForecast
p2017
sVwhiscash
p2018
VWhiscash
p2019
sVsnowwarning
p2020
VSnow Warning
p2021
sVjustified
p2022
VJustified
p2023
sVghostiumz
p2024
VGhostium Z
p2025
sVdamprock
p2026
VDamp Rock
p2027
sVhariyama
p2028
VHariyama
p2029
sVcrawdaunt
p2030
VCrawdaunt
p2031
sVpluck
p2032
VPluck
p2033
sVfuryattack
p2034
VFury Attack
p2035
sVroseincense
p2036
VRose Incense
p2037
sVspiderweb
p2038
VSpider Web
p2039
sVbrutalswing
p2040
VBrutal Swing
p2041
sVdestinyknot
p2042
VDestiny Knot
p2043
sVluminousmoss
p2044
VLuminous Moss
p2045
sVvivillonpokeball
p2046
VVivillon-Pokeball
p2047
sVpoisonmemory
p2048
VPoison Memory
p2049
sVsteelix
p2050
VSteelix
p2051
sVnestball
p2052
VNest Ball
p2053
sVberry
p2054
VBerry
p2055
sVcellbattery
p2056
VCell Battery
p2057
sVpheromosa
p2058
VPheromosa
p2059
sVwingattack
p2060
VWing Attack
p2061
sVnormalgem
p2062
VNormal Gem
p2063
sVsmartstrike
p2064
VSmart Strike
p2065
sVhiddenpowersteel
p2066
VHidden Power Steel
p2067
sVtyranitarite
p2068
VTyranitarite
p2069
sVdodrio
p2070
VDodrio
p2071
sVtapubulu
p2072
VTapu Bulu
p2073
sVstancechange
p2074
VStance Change
p2075
sVzapdos
p2076
VZapdos
p2077
sVendeavor
p2078
VEndeavor
p2079
sVechoedvoice
p2080
VEchoed Voice
p2081
sVrunaway
p2082
VRun Away
p2083
sVlandswrath
p2084
VLand's Wrath
p2085
sVmawilemega
p2086
VMawile-Mega
p2087
sVdewpider
p2088
VDewpider
p2089
sVlightmetal
p2090
VLight Metal
p2091
sVburntberry
p2092
VBurnt Berry
p2093
sVstunspore
p2094
VStun Spore
p2095
sVxerneas
p2096
VXerneas
p2097
sVchopleberry
p2098
VChople Berry
p2099
sVhighjumpkick
p2100
VHigh Jump Kick
p2101
sVpokestarsmeargle
p2102
VPokestar Smeargle
p2103
sVheatrock
p2104
VHeat Rock
p2105
sVlopunnymega
p2106
VLopunny-Mega
p2107
sVwhirlipede
p2108
VWhirlipede
p2109
sVflamebody
p2110
VFlame Body
p2111
sVhelioptile
p2112
VHelioptile
p2113
sVcresselia
p2114
VCresselia
p2115
sVvictreebel
p2116
VVictreebel
p2117
sVomanyte
p2118
VOmanyte
p2119
sVbreloom
p2120
VBreloom
p2121
sVstormthrow
p2122
VStorm Throw
p2123
sVhealblock
p2124
VHeal Block
p2125
sVswanna
p2126
VSwanna
p2127
sVskiddo
p2128
VSkiddo
p2129
sVcareful
p2130
VCareful
p2131
sVmudshot
p2132
VMud Shot
p2133
sVclangoroussoulblaze
p2134
VClangorous Soulblaze
p2135
sVdryskin
p2136
VDry Skin
p2137
sVsteelworker
p2138
VSteelworker
p2139
sVdefeatist
p2140
VDefeatist
p2141
sVbugmemory
p2142
VBug Memory
p2143
sVtrick
p2144
VTrick
p2145
sVlandorus
p2146
VLandorus
p2147
sVgroudon
p2148
VGroudon
p2149
sVspotlight
p2150
VSpotlight
p2151
sVrhyhorn
p2152
VRhyhorn
p2153
sVquiet
p2154
VQuiet
p2155
sVshadowclaw
p2156
VShadow Claw
p2157
sVsacredfire
p2158
VSacred Fire
p2159
sVmonferno
p2160
VMonferno
p2161
sVvicegrip
p2162
VVice Grip
p2163
sVgourgeistlarge
p2164
VGourgeist-Large
p2165
sVcubchoo
p2166
VCubchoo
p2167
sVprimariumz
p2168
VPrimarium Z
p2169
sVhiddenpowerice
p2170
VHidden Power Ice
p2171
sVextremespeed
p2172
VExtreme Speed
p2173
sVangerpoint
p2174
VAnger Point
p2175
sVphantomforce
p2176
VPhantom Force
p2177
sVstrongjaw
p2178
VStrong Jaw
p2179
sVbrionne
p2180
VBrionne
p2181
sVkrookodile
p2182
VKrookodile
p2183
sVnuzzle
p2184
VNuzzle
p2185
sVmistysurge
p2186
VMisty Surge
p2187
sVgenesectshock
p2188
VGenesect-Shock
p2189
sVmagnetbomb
p2190
VMagnet Bomb
p2191
sVassist
p2192
VAssist
p2193
sVblaziken
p2194
VBlaziken
p2195
sVbulletproof
p2196
VBulletproof
p2197
sVsteelgem
p2198
VSteel Gem
p2199
sVpangoro
p2200
VPangoro
p2201
sVhypervoice
p2202
VHyper Voice
p2203
sVminimize
p2204
VMinimize
p2205
sVdoublehit
p2206
VDouble Hit
p2207
sVmedicham
p2208
VMedicham
p2209
sVmrmime
p2210
VMr. Mime
p2211
sVmasterball
p2212
VMaster Ball
p2213
sVspark
p2214
VSpark
p2215
sVdrampa
p2216
VDrampa
p2217
sVrazorwind
p2218
VRazor Wind
p2219
sVfurcoat
p2220
VFur Coat
p2221
sVhealingwish
p2222
VHealing Wish
p2223
sVquickguard
p2224
VQuick Guard
p2225
sVpowerband
p2226
VPower Band
p2227
sVwingull
p2228
VWingull
p2229
sVsnorliumz
p2230
VSnorlium Z
p2231
sVfurfrou
p2232
VFurfrou
p2233
sVchimchar
p2234
VChimchar
p2235
sVdarkaura
p2236
VDark Aura
p2237
sVrazorclaw
p2238
VRazor Claw
p2239
sVdragonbreath
p2240
VDragon Breath
p2241
sVsearingsunrazesmash
p2242
VSearing Sunraze Smash
p2243
sVelgyem
p2244
VElgyem
p2245
sVduskull
p2246
VDuskull
p2247
sVcometpunch
p2248
VComet Punch
p2249
sVaerialace
p2250
VAerial Ace
p2251
sVparas
p2252
VParas
p2253
sVrayquazamega
p2254
VRayquaza-Mega
p2255
sVflareblitz
p2256
VFlare Blitz
p2257
sVxurkitree
p2258
VXurkitree
p2259
sVtrubbish
p2260
VTrubbish
p2261
sVsnarl
p2262
VSnarl
p2263
sVmachpunch
p2264
VMach Punch
p2265
sVvolkraken
p2266
VVolkraken
p2267
sVsunkern
p2268
VSunkern
p2269
sVbreakneckblitz
p2270
VBreakneck Blitz
p2271
sVcolossoil
p2272
VColossoil
p2273
sVdreamball
p2274
VDream Ball
p2275
sVsnore
p2276
VSnore
p2277
sVfloatstone
p2278
VFloat Stone
p2279
sVskiploom
p2280
VSkiploom
p2281
sVregigigas
p2282
VRegigigas
p2283
sVzingzap
p2284
VZing Zap
p2285
sVvoltswitch
p2286
VVolt Switch
p2287
sVmeltan
p2288
VMeltan
p2289
sVarceusrock
p2290
VArceus-Rock
p2291
sVbrightpowder
p2292
VBright Powder
p2293
sVhypercutter
p2294
VHyper Cutter
p2295
sVvanillite
p2296
VVanillite
p2297
sVchoiceband
p2298
VChoice Band
p2299
sVheartswap
p2300
VHeart Swap
p2301
sVsubzeroslammer
p2302
VSubzero Slammer
p2303
sVheatcrash
p2304
VHeat Crash
p2305
sVpinapberry
p2306
VPinap Berry
p2307
sVminccino
p2308
VMinccino
p2309
sVbellsprout
p2310
VBellsprout
p2311
sVprinplup
p2312
VPrinplup
p2313
sVaudinomega
p2314
VAudino-Mega
p2315
sVmachoke
p2316
VMachoke
p2317
sVultraball
p2318
VUltra Ball
p2319
sVcrustle
p2320
VCrustle
p2321
sVpowergem
p2322
VPower Gem
p2323
sViceburn
p2324
VIce Burn
p2325
sVbattlearmor
p2326
VBattle Armor
p2327
sVvolcanion
p2328
VVolcanion
p2329
sVcastformsnowy
p2330
VCastform-Snowy
p2331
sVraticatealolatotem
p2332
VRaticate-Alola-Totem
p2333
sVhustle
p2334
VHustle
p2335
sVthroh
p2336
VThroh
p2337
sVmusharna
p2338
VMusharna
p2339
sVinnerfocus
p2340
VInner Focus
p2341
sVbasculinbluestriped
p2342
VBasculin-Blue-Striped
p2343
sVdragonhammer
p2344
VDragon Hammer
p2345
sVhornattack
p2346
VHorn Attack
p2347
sVcomfey
p2348
VComfey
p2349
sVzapcannon
p2350
VZap Cannon
p2351
sVroar
p2352
VRoar
p2353
sVlockon
p2354
VLock-On
p2355
sVfloette
p2356
VFloette
p2357
sVgengar
p2358
VGengar
p2359
sVroserade
p2360
VRoserade
p2361
sVaudino
p2362
VAudino
p2363
sVquilava
p2364
VQuilava
p2365
sVcustapberry
p2366
VCustap Berry
p2367
sVsearingshot
p2368
VSearing Shot
p2369
sVstratagem
p2370
VStratagem
p2371
sVpyroar
p2372
VPyroar
p2373
sVfennekin
p2374
VFennekin
p2375
sVshadowpunch
p2376
VShadow Punch
p2377
sVfocuspunch
p2378
VFocus Punch
p2379
sVbindingband
p2380
VBinding Band
p2381
sVtoughclaws
p2382
VTough Claws
p2383
sVforewarn
p2384
VForewarn
p2385
sViciclespear
p2386
VIcicle Spear
p2387
sVpyroak
p2388
VPyroak
p2389
sVgigalith
p2390
VGigalith
p2391
sVsurgesurfer
p2392
VSurge Surfer
p2393
sVhex
p2394
VHex
p2395
sVmarill
p2396
VMarill
p2397
sVprimarina
p2398
VPrimarina
p2399
sVsymbiosis
p2400
VSymbiosis
p2401
sVgalvanize
p2402
VGalvanize
p2403
sVwillowisp
p2404
VWill-O-Wisp
p2405
sVbubble
p2406
VBubble
p2407
sVfastball
p2408
VFast Ball
p2409
sVglaciate
p2410
VGlaciate
p2411
sVnightshade
p2412
VNight Shade
p2413
sVsizzlyslide
p2414
VSizzly Slide
p2415
sVfrogadier
p2416
VFrogadier
p2417
sVporygon
p2418
VPorygon
p2419
sVgripclaw
p2420
VGrip Claw
p2421
sVvitalspirit
p2422
VVital Spirit
p2423
sVcrabominable
p2424
VCrabominable
p2425
sVrage
p2426
VRage
p2427
sVsandshrewalola
p2428
VSandshrew-Alola
p2429
sVvictorystar
p2430
VVictory Star
p2431
sVvinewhip
p2432
VVine Whip
p2433
sVstoneplate
p2434
VStone Plate
p2435
sVember
p2436
VEmber
p2437
sVsplashplate
p2438
VSplash Plate
p2439
sVpowdersnow
p2440
VPowder Snow
p2441
sVrockruff
p2442
VRockruff
p2443
sVchesnaught
p2444
VChesnaught
p2445
sVgrepaberry
p2446
VGrepa Berry
p2447
sVrhydon
p2448
VRhydon
p2449
sVsmokescreen
p2450
VSmokescreen
p2451
sVmoonblast
p2452
VMoonblast
p2453
sVcolburberry
p2454
VColbur Berry
p2455
sVsilvallydragon
p2456
VSilvally-Dragon
p2457
sVhydrovortex
p2458
VHydro Vortex
p2459
sVsoulstealing7starstrike
p2460
VSoul-Stealing 7-Star Strike
p2461
sVimmunity
p2462
VImmunity
p2463
sVtangela
p2464
VTangela
p2465
sVcharizard
p2466
VCharizard
p2467
sVgolem
p2468
VGolem
p2469
sVstompingtantrum
p2470
VStomping Tantrum
p2471
sVmirrorcoat
p2472
VMirror Coat
p2473
sVemboar
p2474
VEmboar
p2475
sVdustox
p2476
VDustox
p2477
sVrootfossil
p2478
VRoot Fossil
p2479
sVzigzagoon
p2480
VZigzagoon
p2481
sVtackle
p2482
VTackle
p2483
sVpopplio
p2484
VPopplio
p2485
sVrotomwash
p2486
VRotom-Wash
p2487
sVgrudge
p2488
VGrudge
p2489
sVcyndaquil
p2490
VCyndaquil
p2491
sVblueflare
p2492
VBlue Flare
p2493
sVdefog
p2494
VDefog
p2495
sVberserkgene
p2496
VBerserk Gene
p2497
sVskyattack
p2498
VSky Attack
p2499
sVmoonlight
p2500
VMoonlight
p2501
sVmimic
p2502
VMimic
p2503
sVstockpile
p2504
VStockpile
p2505
sVoddincense
p2506
VOdd Incense
p2507
sVmeloetta
p2508
VMeloetta
p2509
sVgardevoirmega
p2510
VGardevoir-Mega
p2511
sVlairon
p2512
VLairon
p2513
sVeerieimpulse
p2514
VEerie Impulse
p2515
sVscrappy
p2516
VScrappy
p2517
sVtogetic
p2518
VTogetic
p2519
sVfirepunch
p2520
VFire Punch
p2521
sVunfezant
p2522
VUnfezant
p2523
sVmicleberry
p2524
VMicle Berry
p2525
sVjolly
p2526
VJolly
p2527
sVsalandit
p2528
VSalandit
p2529
sVbewear
p2530
VBewear
p2531
sVlightningrod
p2532
VLightning Rod
p2533
sVgigadrain
p2534
VGiga Drain
p2535
sVsilverpowder
p2536
VSilverPowder
p2537
sVvanillish
p2538
VVanillish
p2539
sVvenomdrench
p2540
VVenom Drench
p2541
sVbayleef
p2542
VBayleef
p2543
sVhondewberry
p2544
VHondew Berry
p2545
sVbloomdoom
p2546
VBloom Doom
p2547
sVtympole
p2548
VTympole
p2549
sVplasmafists
p2550
VPlasma Fists
p2551
sVtyranitarmega
p2552
VTyranitar-Mega
p2553
sVicepunch
p2554
VIce Punch
p2555
sVgalvantula
p2556
VGalvantula
p2557
sVshinystone
p2558
VShiny Stone
p2559
sVcombusken
p2560
VCombusken
p2561
sVcloudnine
p2562
VCloud Nine
p2563
sVmienshao
p2564
VMienshao
p2565
sVkeeberry
p2566
VKee Berry
p2567
sVsteameruption
p2568
VSteam Eruption
p2569
sVmild
p2570
VMild
p2571
sVscrafty
p2572
VScrafty
p2573
sVnoability
p2574
VNo Ability
p2575
sVsecretpower
p2576
VSecret Power
p2577
sVshadowtag
p2578
VShadow Tag
p2579
sVpidgeotmega
p2580
VPidgeot-Mega
p2581
sVmagearnaoriginal
p2582
VMagearna-Original
p2583
sVdoublekick
p2584
VDouble Kick
p2585
sVsandtomb
p2586
VSand Tomb
p2587
sVflorges
p2588
VFlorges
p2589
sVgourgeistsuper
p2590
VGourgeist-Super
p2591
sVironbarbs
p2592
VIron Barbs
p2593
sValtaria
p2594
VAltaria
p2595
sVcrushgrip
p2596
VCrush Grip
p2597
sVmagikarp
p2598
VMagikarp
p2599
sVseedbomb
p2600
VSeed Bomb
p2601
sVmeganium
p2602
VMeganium
p2603
sVchipaway
p2604
VChip Away
p2605
sVhealer
p2606
VHealer
p2607
sVfeatherdance
p2608
VFeather Dance
p2609
sVshockwave
p2610
VShock Wave
p2611
sVironplate
p2612
VIron Plate
p2613
sVgreatball
p2614
VGreat Ball
p2615
sVfellstinger
p2616
VFell Stinger
p2617
sVwateriumz
p2618
VWaterium Z
p2619
sVfightiniumz
p2620
VFightinium Z
p2621
sVheartstamp
p2622
VHeart Stamp
p2623
sVboldore
p2624
VBoldore
p2625
sVcombee
p2626
VCombee
p2627
sVdragonfang
p2628
VDragon Fang
p2629
sVgastly
p2630
VGastly
p2631
sVrevenge
p2632
VRevenge
p2633
sVclearsmog
p2634
VClear Smog
p2635
sVsteenee
p2636
VSteenee
p2637
sVvenusaurmega
p2638
VVenusaur-Mega
p2639
sVinfernape
p2640
VInfernape
p2641
sVdecidiumz
p2642
VDecidium Z
p2643
sVaromatisse
p2644
VAromatisse
p2645
sVbattlebond
p2646
VBattle Bond
p2647
sVkyuremwhite
p2648
VKyurem-White
p2649
sVpokestarhumanoid
p2650
VPokestar Humanoid
p2651
sVacidspray
p2652
VAcid Spray
p2653
sVcursedbody
p2654
VCursed Body
p2655
sVpowerbracer
p2656
VPower Bracer
p2657
sVwringout
p2658
VWring Out
p2659
sVstarly
p2660
VStarly
p2661
sVstruggle
p2662
VStruggle
p2663
sVgolett
p2664
VGolett
p2665
sVinciniumz
p2666
VIncinium Z
p2667
sVgyaradosmega
p2668
VGyarados-Mega
p2669
sVgallade
p2670
VGallade
p2671
sVoranguru
p2672
VOranguru
p2673
sVledian
p2674
VLedian
p2675
sVcutiefly
p2676
VCutiefly
p2677
sVscraggy
p2678
VScraggy
p2679
sVelectricseed
p2680
VElectric Seed
p2681
sVluvdisc
p2682
VLuvdisc
p2683
sVhelixfossil
p2684
VHelix Fossil
p2685
sVsavagespinout
p2686
VSavage Spin-Out
p2687
sVsplash
p2688
VSplash
p2689
sVillumise
p2690
VIllumise
p2691
sVcawdet
p2692
VCawdet
p2693
sVanorith
p2694
VAnorith
p2695
sVfairiumz
p2696
VFairium Z
p2697
sVdizzypunch
p2698
VDizzy Punch
p2699
sVflyingpress
p2700
VFlying Press
p2701
sVbounsweet
p2702
VBounsweet
p2703
sVpumpkaboosuper
p2704
VPumpkaboo-Super
p2705
sVhorsea
p2706
VHorsea
p2707
sVstick
p2708
VStick
p2709
sVrazorfang
p2710
VRazor Fang
p2711
sVwatergem
p2712
VWater Gem
p2713
sVturboblaze
p2714
VTurboblaze
p2715
sVaegislashblade
p2716
VAegislash-Blade
p2717
sVnaturalgift
p2718
VNatural Gift
p2719
sVenergypowder
p2720
VEnergy Powder
p2721
sVchartiberry
p2722
VCharti Berry
p2723
sVlumberry
p2724
VLum Berry
p2725
sVvoltorb
p2726
VVoltorb
p2727
sVshadowshield
p2728
VShadow Shield
p2729
sVskyplate
p2730
VSky Plate
p2731
sVsableye
p2732
VSableye
p2733
sVseviper
p2734
VSeviper
p2735
sVmarvelscale
p2736
VMarvel Scale
p2737
sVaurumoth
p2738
VAurumoth
p2739
sVflowerveil
p2740
VFlower Veil
p2741
sVstaryu
p2742
VStaryu
p2743
sVwishiwashi
p2744
VWishiwashi
p2745
sVshelltrap
p2746
VShell Trap
p2747
sVwikiberry
p2748
VWiki Berry
p2749
sVwobbuffet
p2750
VWobbuffet
p2751
sVteleport
p2752
VTeleport
p2753
sVshelmet
p2754
VShelmet
p2755
sVkommoototem
p2756
VKommo-o-Totem
p2757
sVglalitite
p2758
VGlalitite
p2759
sVflyinggem
p2760
VFlying Gem
p2761
sVbulkup
p2762
VBulk Up
p2763
sVglaceon
p2764
VGlaceon
p2765
sVwonderguard
p2766
VWonder Guard
p2767
sVprismarmor
p2768
VPrism Armor
p2769
sVelectricgem
p2770
VElectric Gem
p2771
sVrotomfan
p2772
VRotom-Fan
p2773
sVsignalbeam
p2774
VSignal Beam
p2775
sVshuckle
p2776
VShuckle
p2777
sVjynx
p2778
VJynx
p2779
sVreflect
p2780
VReflect
p2781
sVdisable
p2782
VDisable
p2783
sVliquidooze
p2784
VLiquid Ooze
p2785
sVmistyterrain
p2786
VMisty Terrain
p2787
sVfairygem
p2788
VFairy Gem
p2789
sVmedichammega
p2790
VMedicham-Mega
p2791
sVtwistedspoon
p2792
VTwisted Spoon
p2793
sVlanturn
p2794
VLanturn
p2795
sVpineco
p2796
VPineco
p2797
sVcomatose
p2798
VComatose
p2799
sVretaliate
p2800
VRetaliate
p2801
sVgoldbottlecap
p2802
VGold Bottle Cap
p2803
sVphantump
p2804
VPhantump
p2805
sVgolisopod
p2806
VGolisopod
p2807
sVqueenlymajesty
p2808
VQueenly Majesty
p2809
sVcorphish
p2810
VCorphish
p2811
sVbastiodon
p2812
VBastiodon
p2813
sVwatmelberry
p2814
VWatmel Berry
p2815
sVarticuno
p2816
VArticuno
p2817
sVfissure
p2818
VFissure
p2819
sVvolcarona
p2820
VVolcarona
p2821
sVblackglasses
p2822
VBlack Glasses
p2823
sVplayrough
p2824
VPlay Rough
p2825
sVhealorder
p2826
VHeal Order
p2827
sVjigglypuff
p2828
VJigglypuff
p2829
sVsandslash
p2830
VSandslash
p2831
sVastonish
p2832
VAstonish
p2833
sVenergyball
p2834
VEnergy Ball
p2835
sVaggron
p2836
VAggron
p2837
sVlampent
p2838
VLampent
p2839
sVfistplate
p2840
VFist Plate
p2841
sVreturn
p2842
VReturn
p2843
sVmanectricmega
p2844
VManectric-Mega
p2845
sVsnowball
p2846
VSnowball
p2847
sVsolarbeam
p2848
VSolar Beam
p2849
sVcharizardmegax
p2850
VCharizard-Mega-X
p2851
sVcharizardmegay
p2852
VCharizard-Mega-Y
p2853
sVclefable
p2854
VClefable
p2855
sVpokestarmt
p2856
VPokestar MT
p2857
sVskuntank
p2858
VSkuntank
p2859
sVprimeape
p2860
VPrimeape
p2861
sVgabite
p2862
VGabite
p2863
sVgrubbin
p2864
VGrubbin
p2865
sVmanaphy
p2866
VManaphy
p2867
sVmissingno
p2868
VMissingno.
p2869
sVhooh
p2870
VHo-Oh
p2871
sVrefresh
p2872
VRefresh
p2873
sVspoink
p2874
VSpoink
p2875
sVlovelykiss
p2876
VLovely Kiss
p2877
sVmeanlook
p2878
VMean Look
p2879
sVgumshoos
p2880
VGumshoos
p2881
sVclamp
p2882
VClamp
p2883
sVtopsyturvy
p2884
VTopsy-Turvy
p2885
sVquickfeet
p2886
VQuick Feet
p2887
sVsilvallyelectric
p2888
VSilvally-Electric
p2889
sVwatershuriken
p2890
VWater Shuriken
p2891
sVtsareena
p2892
VTsareena
p2893
sVthunderbolt
p2894
VThunderbolt
p2895
sVmagnezone
p2896
VMagnezone
p2897
sVtrickroom
p2898
VTrick Room
p2899
sVmist
p2900
VMist
p2901
sVwatercompaction
p2902
VWater Compaction
p2903
sVhiddenpowerpsychic
p2904
VHidden Power Psychic
p2905
sVelectroweb
p2906
VElectroweb
p2907
sVkangaskhanmega
p2908
VKangaskhan-Mega
p2909
sVsalamence
p2910
VSalamence
p2911
sVarceuswater
p2912
VArceus-Water
p2913
sVarceusice
p2914
VArceus-Ice
p2915
sVsuperfang
p2916
VSuper Fang
p2917
sVsilvallyground
p2918
VSilvally-Ground
p2919
sVchoicescarf
p2920
VChoice Scarf
p2921
sVroggenrola
p2922
VRoggenrola
p2923
sVflashcannon
p2924
VFlash Cannon
p2925
sVironhead
p2926
VIron Head
p2927
sVsentret
p2928
VSentret
p2929
sVpichuspikyeared
p2930
VPichu-Spiky-eared
p2931
sVtyrogue
p2932
VTyrogue
p2933
sVcleffa
p2934
VCleffa
p2935
sVwaterabsorb
p2936
VWater Absorb
p2937
sVtoxicboost
p2938
VToxic Boost
p2939
sVninetales
p2940
VNinetales
p2941
sVnidoranf
p2942
VNidoran-F
p2943
sVcottonspore
p2944
VCotton Spore
p2945
sVnidoranm
p2946
VNidoran-M
p2947
sVparaboliccharge
p2948
VParabolic Charge
p2949
sVscopelens
p2950
VScope Lens
p2951
sVhydreigon
p2952
VHydreigon
p2953
sVrockpolish
p2954
VRock Polish
p2955
sVmightyena
p2956
VMightyena
p2957
sVabomasnowmega
p2958
VAbomasnow-Mega
p2959
sVsolganiumz
p2960
VSolganium Z
p2961
sVbrave
p2962
VBrave
p2963
sVstoredpower
p2964
VStored Power
p2965
sVapicotberry
p2966
VApicot Berry
p2967
sVpetaldance
p2968
VPetal Dance
p2969
sVmeowstic
p2970
VMeowstic
p2971
sVboltstrike
p2972
VBolt Strike
p2973
sVraikou
p2974
VRaikou
p2975
sVswarm
p2976
VSwarm
p2977
sVbibarel
p2978
VBibarel
p2979
sVpsncureberry
p2980
VPSN Cure Berry
p2981
sVdazzlinggleam
p2982
VDazzling Gleam
p2983
sVlandorustherian
p2984
VLandorus-Therian
p2985
sVshedinja
p2986
VShedinja
p2987
sVpikashuniumz
p2988
VPikashunium Z
p2989
sVpsybeam
p2990
VPsybeam
p2991
sVsuckerpunch
p2992
VSucker Punch
p2993
sVaspearberry
p2994
VAspear Berry
p2995
sVdragonascent
p2996
VDragon Ascent
p2997
sVfreezeshock
p2998
VFreeze Shock
p2999
sVpsywave
p3000
VPsywave
p3001
sVdrillrun
p3002
VDrill Run
p3003
sVwhiteherb
p3004
VWhite Herb
p3005
sVringtarget
p3006
VRing Target
p3007
sVvenipede
p3008
VVenipede
p3009
sVdarkpulse
p3010
VDark Pulse
p3011
sVyamask
p3012
VYamask
p3013
sVstall
p3014
VStall
p3015
sVsharpedonite
p3016
VSharpedonite
p3017
sVmerciless
p3018
VMerciless
p3019
sVdoubleedge
p3020
VDouble-Edge
p3021
sVremoraid
p3022
VRemoraid
p3023
sVclefairy
p3024
VClefairy
p3025
sVklink
p3026
VKlink
p3027
sVfirespin
p3028
VFire Spin
p3029
sVgenesectchill
p3030
VGenesect-Chill
p3031
sVsuicune
p3032
VSuicune
p3033
sVthundurustherian
p3034
VThundurus-Therian
p3035
sVpamtreberry
p3036
VPamtre Berry
p3037
sVmegahorn
p3038
VMegahorn
p3039
sVslowbromega
p3040
VSlowbro-Mega
p3041
sVzenmode
p3042
VZen Mode
p3043
sVsunflora
p3044
VSunflora
p3045
sVariados
p3046
VAriados
p3047
sVgourgeist
p3048
VGourgeist
p3049
sVbarbaracle
p3050
VBarbaracle
p3051
sVairballoon
p3052
VAir Balloon
p3053
sVswirlix
p3054
VSwirlix
p3055
sVlitleo
p3056
VLitleo
p3057
sVcamouflage
p3058
VCamouflage
p3059
sVfrillish
p3060
VFrillish
p3061
sVroselia
p3062
VRoselia
p3063
sVkangaskhan
p3064
VKangaskhan
p3065
sVregirock
p3066
VRegirock
p3067
sVpansage
p3068
VPansage
p3069
sVswitcheroo
p3070
VSwitcheroo
p3071
sValakazammega
p3072
VAlakazam-Mega
p3073
sVrockgem
p3074
VRock Gem
p3075
sVeruption
p3076
VEruption
p3077
sVyawn
p3078
VYawn
p3079
sVcharm
p3080
VCharm
p3081
sVdiglett
p3082
VDiglett
p3083
sVbeldum
p3084
VBeldum
p3085
sVhabanberry
p3086
VHaban Berry
p3087
sVcrosspoison
p3088
VCross Poison
p3089
sVcarvanha
p3090
VCarvanha
p3091
sVrefrigerate
p3092
VRefrigerate
p3093
sVlowsweep
p3094
VLow Sweep
p3095
sVsturdy
p3096
VSturdy
p3097
sVcovet
p3098
VCovet
p3099
sVlax
p3100
VLax
p3101
sVlunala
p3102
VLunala
p3103
sVmarshadiumz
p3104
VMarshadium Z
p3105
sVgenesectdouse
p3106
VGenesect-Douse
p3107
sVkaratechop
p3108
VKarate Chop
p3109
sVworryseed
p3110
VWorry Seed
p3111
sVazumarill
p3112
VAzumarill
p3113
sVmetalburst
p3114
VMetal Burst
p3115
sVherdier
p3116
VHerdier
p3117
sVguardsplit
p3118
VGuard Split
p3119
sVnanabberry
p3120
VNanab Berry
p3121
sVzoomlens
p3122
VZoom Lens
p3123
sVblackbelt
p3124
VBlack Belt
p3125
sVhammerarm
p3126
VHammer Arm
p3127
sVmagmaarmor
p3128
VMagma Armor
p3129
sVcrabrawler
p3130
VCrabrawler
p3131
sVpayday
p3132
VPay Day
p3133
sVgooey
p3134
VGooey
p3135
sVoblivionwing
p3136
VOblivion Wing
p3137
sVtyrantrum
p3138
VTyrantrum
p3139
sVhealpulse
p3140
VHeal Pulse
p3141
sVheadcharge
p3142
VHead Charge
p3143
sVpawniard
p3144
VPawniard
p3145
sVpoisontail
p3146
VPoison Tail
p3147
sVrest
p3148
VRest
p3149
sVdocile
p3150
VDocile
p3151
sVfireblast
p3152
VFire Blast
p3153
sVmaliciousmoonsault
p3154
VMalicious Moonsault
p3155
sVshroomish
p3156
VShroomish
p3157
sVlitten
p3158
VLitten
p3159
sVwhismur
p3160
VWhismur
p3161
sVspikes
p3162
VSpikes
p3163
sVshadowstrike
p3164
VShadow Strike
p3165
sVlongreach
p3166
VLong Reach
p3167
sVskorupi
p3168
VSkorupi
p3169
sVgengarite
p3170
VGengarite
p3171
sVpokestartransport
p3172
VPokestar Transport
p3173
sVpinkbow
p3174
VPink Bow
p3175
sVblitzle
p3176
VBlitzle
p3177
sVsparklyswirl
p3178
VSparkly Swirl
p3179
sVspeedswap
p3180
VSpeed Swap
p3181
sVlustrousorb
p3182
VLustrous Orb
p3183
sVflarelm
p3184
VFlarelm
p3185
sVtamatoberry
p3186
VTamato Berry
p3187
sVblazikenite
p3188
VBlazikenite
p3189
sVfarfetchd
p3190
VFarfetch'd
p3191
sVinkay
p3192
VInkay
p3193
sVnecrozmaduskmane
p3194
VNecrozma-Dusk-Mane
p3195
sVpickup
p3196
VPickup
p3197
sVcontrary
p3198
VContrary
p3199
sVkarrablast
p3200
VKarrablast
p3201
sVberserk
p3202
VBerserk
p3203
sVmarowak
p3204
VMarowak
p3205
sVmachobrace
p3206
VMacho Brace
p3207
sVsilvallywater
p3208
VSilvally-Water
p3209
sVelekid
p3210
VElekid
p3211
sVmagmortar
p3212
VMagmortar
p3213
sVchansey
p3214
VChansey
p3215
sVroaroftime
p3216
VRoar of Time
p3217
sVwildcharge
p3218
VWild Charge
p3219
sVgraveleralola
p3220
VGraveler-Alola
p3221
sVhoundoommega
p3222
VHoundoom-Mega
p3223
sVclaydol
p3224
VClaydol
p3225
sVrelicanth
p3226
VRelicanth
p3227
sVtorchic
p3228
VTorchic
p3229
sVlapras
p3230
VLapras
p3231
sVmankey
p3232
VMankey
p3233
sVsweetscent
p3234
VSweet Scent
p3235
sVraticatealola
p3236
VRaticate-Alola
p3237
sVshayminsky
p3238
VShaymin-Sky
p3239
sVsludgebomb
p3240
VSludge Bomb
p3241
sVsandile
p3242
VSandile
p3243
sVtyphlosion
p3244
VTyphlosion
p3245
sVsimple
p3246
VSimple
p3247
sVdrillpeck
p3248
VDrill Peck
p3249
sVicebody
p3250
VIce Body
p3251
sVdancer
p3252
VDancer
p3253
sVfearow
p3254
VFearow
p3255
sVxscissor
p3256
VX-Scissor
p3257
sVbellossom
p3258
VBellossom
p3259
sVquiverdance
p3260
VQuiver Dance
p3261
sVblastoisinite
p3262
VBlastoisinite
p3263
sVmegapunch
p3264
VMega Punch
p3265
sVdamp
p3266
VDamp
p3267
sVskitty
p3268
VSkitty
p3269
sVmienfoo
p3270
VMienfoo
p3271
sVpollenpuff
p3272
VPollen Puff
p3273
sVliepard
p3274
VLiepard
p3275
sVamnesia
p3276
VAmnesia
p3277
sVdestinybond
p3278
VDestiny Bond
p3279
sVcastform
p3280
VCastform
p3281
sVmeowthalola
p3282
VMeowth-Alola
p3283
sVdruddigon
p3284
VDruddigon
p3285
sVtaillow
p3286
VTaillow
p3287
sVbashful
p3288
VBashful
p3289
sVdragontail
p3290
VDragon Tail
p3291
sVswellow
p3292
VSwellow
p3293
sVstringshot
p3294
VString Shot
p3295
sValomomola
p3296
VAlomomola
p3297
sVwatergun
p3298
VWater Gun
p3299
sVvcreate
p3300
VV-create
p3301
sVnomelberry
p3302
VNomel Berry
p3303
sVdrainingkiss
p3304
VDraining Kiss
p3305
sVbasculin
p3306
VBasculin
p3307
sVgrassiumz
p3308
VGrassium Z
p3309
sVescavalier
p3310
VEscavalier
p3311
sVpsychoshift
p3312
VPsycho Shift
p3313
sVbisharp
p3314
VBisharp
p3315
sVhoundoom
p3316
VHoundoom
p3317
sVgulpin
p3318
VGulpin
p3319
sVpancham
p3320
VPancham
p3321
sVmantyke
p3322
VMantyke
p3323
sVpound
p3324
VPound
p3325
sVmedichamite
p3326
VMedichamite
p3327
sVrotommow
p3328
VRotom-Mow
p3329
sVdefendorder
p3330
VDefend Order
p3331
sVsurskit
p3332
VSurskit
p3333
sVmegalauncher
p3334
VMega Launcher
p3335
sVicebeam
p3336
VIce Beam
p3337
sVfacade
p3338
VFacade
p3339
sVzubat
p3340
VZubat
p3341
sVmagikarpsrevenge
p3342
VMagikarp's Revenge
p3343
sVingrain
p3344
VIngrain
p3345
sVcottonee
p3346
VCottonee
p3347
sVpikachuphd
p3348
VPikachu-PhD
p3349
sVpowerlens
p3350
VPower Lens
p3351
sVzweilous
p3352
VZweilous
p3353
sVpoisonjab
p3354
VPoison Jab
p3355
sVcameruptmega
p3356
VCamerupt-Mega
p3357
sVprotectivepads
p3358
VProtective Pads
p3359
sVcrucibellemega
p3360
VCrucibelle-Mega
p3361
sVadrenalineorb
p3362
VAdrenaline Orb
p3363
sVleechseed
p3364
VLeech Seed
p3365
sVgorebyss
p3366
VGorebyss
p3367
sVgrotle
p3368
VGrotle
p3369
sVpikachu
p3370
VPikachu
p3371
sVrayquaza
p3372
VRayquaza
p3373
sVfroakie
p3374
VFroakie
p3375
sVloveball
p3376
VLove Ball
p3377
sVjumpluff
p3378
VJumpluff
p3379
sVkomala
p3380
VKomala
p3381
sVtimid
p3382
VTimid
p3383
sVmismagius
p3384
VMismagius
p3385
sVhiddenpowerbug
p3386
VHidden Power Bug
p3387
sVinfiltrator
p3388
VInfiltrator
p3389
sVpsychup
p3390
VPsych Up
p3391
sVsunstone
p3392
VSun Stone
p3393
sVtangrowth
p3394
VTangrowth
p3395
sVfiregem
p3396
VFire Gem
p3397
sVshellder
p3398
VShellder
p3399
sVwithdraw
p3400
VWithdraw
p3401
sVmoonball
p3402
VMoon Ball
p3403
sVpainsplit
p3404
VPain Split
p3405
sVstoneedge
p3406
VStone Edge
p3407
sVhowl
p3408
VHowl
p3409
sVeeviumz
p3410
VEevium Z
p3411
sVwaterpledge
p3412
VWater Pledge
p3413
sVspearow
p3414
VSpearow
p3415
sVdarmanitan
p3416
VDarmanitan
p3417
sVrockwrecker
p3418
VRock Wrecker
p3419
sVoriginpulse
p3420
VOrigin Pulse
p3421
sVcompetitive
p3422
VCompetitive
p3423
sVzygarde
p3424
VZygarde
p3425
sVsolrock
p3426
VSolrock
p3427
sVthousandarrows
p3428
VThousand Arrows
p3429
sVsmokomodo
p3430
VSmokomodo
p3431
sVcut
p3432
VCut
p3433
sVincineroar
p3434
VIncineroar
p3435
sVcloyster
p3436
VCloyster
p3437
sVshoreup
p3438
VShore Up
p3439
sVmetapod
p3440
VMetapod
p3441
sVairslash
p3442
VAir Slash
p3443
sVmagiccoat
p3444
VMagic Coat
p3445
sVacrobatics
p3446
VAcrobatics
p3447
sVspheal
p3448
VSpheal
p3449
sVlatios
p3450
VLatios
p3451
sVchoicespecs
p3452
VChoice Specs
p3453
sVrebound
p3454
VRebound
p3455
sVlusterpurge
p3456
VLuster Purge
p3457
sVkeldeoresolute
p3458
VKeldeo-Resolute
p3459
sVzygardecomplete
p3460
VZygarde-Complete
p3461
sVmoody
p3462
VMoody
p3463
sVglaliemega
p3464
VGlalie-Mega
p3465
sVgothitelle
p3466
VGothitelle
p3467
sVskilllink
p3468
VSkill Link
p3469
sVponyta
p3470
VPonyta
p3471
sVsunnyday
p3472
VSunny Day
p3473
sVsubmission
p3474
VSubmission
p3475
sVstaravia
p3476
VStaravia
p3477
sVtailglow
p3478
VTail Glow
p3479
sVnoibat
p3480
VNoibat
p3481
sVstealthrock
p3482
VStealth Rock
p3483
sVtechnoblast
p3484
VTechno Blast
p3485
sVbaltoy
p3486
VBaltoy
p3487
sVflamewheel
p3488
VFlame Wheel
p3489
sVsketch
p3490
VSketch
p3491
sVfrisk
p3492
VFrisk
p3493
sVmagmarizer
p3494
VMagmarizer
p3495
sVbounce
p3496
VBounce
p3497
sVphotongeyser
p3498
VPhoton Geyser
p3499
sVsouldew
p3500
VSoul Dew
p3501
sVgigaimpact
p3502
VGiga Impact
p3503
sVsewaddle
p3504
VSewaddle
p3505
sVkommoo
p3506
VKommo-o
p3507
sVscald
p3508
VScald
p3509
sVominouswind
p3510
VOminous Wind
p3511
sVdeepseascale
p3512
VDeep Sea Scale
p3513
sVmummy
p3514
VMummy
p3515
sVhuntail
p3516
VHuntail
p3517
sVswordsdance
p3518
VSwords Dance
p3519
sVearlybird
p3520
VEarly Bird
p3521
sVslash
p3522
VSlash
p3523
sVhiddenpowergrass
p3524
VHidden Power Grass
p3525
sVpidgeotite
p3526
VPidgeotite
p3527
sVgarchompmega
p3528
VGarchomp-Mega
p3529
sV10000000voltthunderbolt
p3530
V10,000,000 Volt Thunderbolt
p3531
sVoricoriopau
p3532
VOricorio-Pa'u
p3533
sVseismitoad
p3534
VSeismitoad
p3535
sVodorsleuth
p3536
VOdor Sleuth
p3537
sVmewtwomegax
p3538
VMewtwo-Mega-X
p3539
sVmewtwomegay
p3540
VMewtwo-Mega-Y
p3541
sVfocussash
p3542
VFocus Sash
p3543
sVjellicent
p3544
VJellicent
p3545
sVspelonberry
p3546
VSpelon Berry
p3547
sVnobleroar
p3548
VNoble Roar
p3549
sVkangaskhanite
p3550
VKangaskhanite
p3551
sVblazekick
p3552
VBlaze Kick
p3553
sViapapaberry
p3554
VIapapa Berry
p3555
sVmudkip
p3556
VMudkip
p3557
sVbouffalant
p3558
VBouffalant
p3559
sVarceusghost
p3560
VArceus-Ghost
p3561
sVblock
p3562
VBlock
p3563
sVsharpedo
p3564
VSharpedo
p3565
sVarmthrust
p3566
VArm Thrust
p3567
sVchargebeam
p3568
VCharge Beam
p3569
sVshellos
p3570
VShellos
p3571
sVnidoking
p3572
VNidoking
p3573
sVliquidation
p3574
VLiquidation
p3575
sVextremeevoboost
p3576
VExtreme Evoboost
p3577
sVsablenite
p3578
VSablenite
p3579
sVbarboach
p3580
VBarboach
p3581
sVstench
p3582
VStench
p3583
sViciclecrash
p3584
VIcicle Crash
p3585
sVcacnea
p3586
VCacnea
p3587
sVdevastatingdrake
p3588
VDevastating Drake
p3589
sVswampertmega
p3590
VSwampert-Mega
p3591
sVpajantom
p3592
VPajantom
p3593
sVpokestarmonster
p3594
VPokestar Monster
p3595
sVsyclar
p3596
VSyclar
p3597
sVmimikyubusted
p3598
VMimikyu-Busted
p3599
sVsnorunt
p3600
VSnorunt
p3601
sVrelaxed
p3602
VRelaxed
p3603
sVeevee
p3604
VEevee
p3605
sVpsychocut
p3606
VPsycho Cut
p3607
sVtranquill
p3608
VTranquill
p3609
sVragepowder
p3610
VRage Powder
p3611
sVbuizel
p3612
VBuizel
p3613
sVsharpen
p3614
VSharpen
p3615
sVgrasspledge
p3616
VGrass Pledge
p3617
sVbuzzwole
p3618
VBuzzwole
p3619
sVabsolmega
p3620
VAbsol-Mega
p3621
sVwatchog
p3622
VWatchog
p3623
sVpokestarwhitedoor
p3624
VPokestar White Door
p3625
sVspacialrend
p3626
VSpacial Rend
p3627
sVbaddreams
p3628
VBad Dreams
p3629
sVgrowth
p3630
VGrowth
p3631
sVpoliwrath
p3632
VPoliwrath
p3633
sVhappyhour
p3634
VHappy Hour
p3635
sVmurkrow
p3636
VMurkrow
p3637
sVpechaberry
p3638
VPecha Berry
p3639
sVpikachusinnoh
p3640
VPikachu-Sinnoh
p3641
sVarceusfairy
p3642
VArceus-Fairy
p3643
sVovalstone
p3644
VOval Stone
p3645
sVmiracleseed
p3646
VMiracle Seed
p3647
sVnaturesmadness
p3648
VNature's Madness
p3649
sVrockhead
p3650
VRock Head
p3651
sVcalm
p3652
VCalm
p3653
sVstickybarb
p3654
VSticky Barb
p3655
sVganlonberry
p3656
VGanlon Berry
p3657
sVbulbasaur
p3658
VBulbasaur
p3659
sVpichu
p3660
VPichu
p3661
sVheatwave
p3662
VHeat Wave
p3663
sVpokestarf00
p3664
VPokestar F-00
p3665
sVdrifloon
p3666
VDrifloon
p3667
sVsnowcloak
p3668
VSnow Cloak
p3669
sVrazorshell
p3670
VRazor Shell
p3671
sVmetagross
p3672
VMetagross
p3673
sVsparklingaria
p3674
VSparkling Aria
p3675
sVpokestarufo
p3676
VPokestar UFO
p3677
sVmeowsticf
p3678
VMeowstic-F
p3679
sVlickilicky
p3680
VLickilicky
p3681
sVaccelgor
p3682
VAccelgor
p3683
sVmysteryberry
p3684
VMystery Berry
p3685
sVmudbray
p3686
VMudbray
p3687
sVprecipiceblades
p3688
VPrecipice Blades
p3689
sVslaking
p3690
VSlaking
p3691
sVavalugg
p3692
VAvalugg
p3693
sVscratch
p3694
VScratch
p3695
sVcharmeleon
p3696
VCharmeleon
p3697
sVhighhorsepower
p3698
VHigh Horsepower
p3699
sVshiinotic
p3700
VShiinotic
p3701
sVnormaliumz
p3702
VNormalium Z
p3703
sVcharmander
p3704
VCharmander
p3705
sVspeedboost
p3706
VSpeed Boost
p3707
sVwakeupslap
p3708
VWake-Up Slap
p3709
sVpsychicgem
p3710
VPsychic Gem
p3711
sVharvest
p3712
VHarvest
p3713
sVperishsong
p3714
VPerish Song
p3715
sVcutecharm
p3716
VCute Charm
p3717
sVblaze
p3718
VBlaze
p3719
sVsniper
p3720
VSniper
p3721
sVtriplekick
p3722
VTriple Kick
p3723
sVdarumaka
p3724
VDarumaka
p3725
sVnightslash
p3726
VNight Slash
p3727
sVextrasensory
p3728
VExtrasensory
p3729
sVteddiursa
p3730
VTeddiursa
p3731
sVthundershock
p3732
VThunder Shock
p3733
sVazurill
p3734
VAzurill
p3735
sVbigpecks
p3736
VBig Pecks
p3737
sVlureball
p3738
VLure Ball
p3739
sVqwilfish
p3740
VQwilfish
p3741
sVhyperbeam
p3742
VHyper Beam
p3743
sVdynamicpunch
p3744
VDynamic Punch
p3745
sVlurantistotem
p3746
VLurantis-Totem
p3747
sVmagnemite
p3748
VMagnemite
p3749
sVtyrunt
p3750
VTyrunt
p3751
sVmultiattack
p3752
VMulti-Attack
p3753
sVirondefense
p3754
VIron Defense
p3755
sVmisdreavus
p3756
VMisdreavus
p3757
sVfidgit
p3758
VFidgit
p3759
sVdousedrive
p3760
VDouse Drive
p3761
sVribombeetotem
p3762
VRibombee-Totem
p3763
sVcrushclaw
p3764
VCrush Claw
p3765
sVsoftboiled
p3766
VSoft-Boiled
p3767
sVpoisongem
p3768
VPoison Gem
p3769
sVtectonicrage
p3770
VTectonic Rage
p3771
sVdownload
p3772
VDownload
p3773
sVacid
p3774
VAcid
p3775
sVvigoroth
p3776
VVigoroth
p3777
sVjumbao
p3778
VJumbao
p3779
sVlombre
p3780
VLombre
p3781
sVbaddybad
p3782
VBaddy Bad
p3783
sVdelcatty
p3784
VDelcatty
p3785
sVhoundoominite
p3786
VHoundoominite
p3787
sVturtonator
p3788
VTurtonator
p3789
sVtriattack
p3790
VTri Attack
p3791
sVtyranitar
p3792
VTyranitar
p3793
sVturtwig
p3794
VTurtwig
p3795
sVbruxish
p3796
VBruxish
p3797
sVmagmastorm
p3798
VMagma Storm
p3799
sVpansear
p3800
VPansear
p3801
sVdeerling
p3802
VDeerling
p3803
sVswinub
p3804
VSwinub
p3805
sVgigavolthavoc
p3806
VGigavolt Havoc
p3807
sVsplishysplash
p3808
VSplishy Splash
p3809
sVabomasnow
p3810
VAbomasnow
p3811
sVrowlet
p3812
VRowlet
p3813
sVsing
p3814
VSing
p3815
sVtriage
p3816
VTriage
p3817
sVpowersplit
p3818
VPower Split
p3819
sVincinerate
p3820
VIncinerate
p3821
sVmarangaberry
p3822
VMaranga Berry
p3823
sVrampardos
p3824
VRampardos
p3825
sVscreech
p3826
VScreech
p3827
sVtentacruel
p3828
VTentacruel
p3829
sVnaturalcure
p3830
VNatural Cure
p3831
sVforestscurse
p3832
VForest's Curse
p3833
sVblizzard
p3834
VBlizzard
p3835
sVteeterdance
p3836
VTeeter Dance
p3837
sVshieldsdown
p3838
VShields Down
p3839
sVfoongus
p3840
VFoongus
p3841
sVfirememory
p3842
VFire Memory
p3843
sVaquaring
p3844
VAqua Ring
p3845
sVprzcureberry
p3846
VPRZ Cure Berry
p3847
sVhardy
p3848
VHardy
p3849
sVarceusground
p3850
VArceus-Ground
p3851
sVpumpkaboolarge
p3852
VPumpkaboo-Large
p3853
sVkingdra
p3854
VKingdra
p3855
sVaerodactylite
p3856
VAerodactylite
p3857
sVstakeout
p3858
VStakeout
p3859
sVbanettite
p3860
VBanettite
p3861
sVdragongem
p3862
VDragon Gem
p3863
sVheatran
p3864
VHeatran
p3865
sVsteelixite
p3866
VSteelixite
p3867
sVheavyball
p3868
VHeavy Ball
p3869
sVcharcoal
p3870
VCharcoal
p3871
sVdubiousdisc
p3872
VDubious Disc
p3873
sVmistyseed
p3874
VMisty Seed
p3875
sVcranidos
p3876
VCranidos
p3877
sVabsol
p3878
VAbsol
p3879
sVcelesteela
p3880
VCelesteela
p3881
sVplusle
p3882
VPlusle
p3883
sVaerodactylmega
p3884
VAerodactyl-Mega
p3885
sVrivalry
p3886
VRivalry
p3887
sVwatersport
p3888
VWater Sport
p3889
sVpikaniumz
p3890
VPikanium Z
p3891
sVicicleplate
p3892
VIcicle Plate
p3893
sVmimikyubustedtotem
p3894
VMimikyu-Busted-Totem
p3895
sVfuturesight
p3896
VFuture Sight
p3897
sVfirelash
p3898
VFire Lash
p3899
sVsmellingsalts
p3900
VSmelling Salts
p3901
sVarchen
p3902
VArchen
p3903
sVexeggcute
p3904
VExeggcute
p3905
sVlucario
p3906
VLucario
p3907
sVthundurus
p3908
VThundurus
p3909
sVburnup
p3910
VBurn Up
p3911
sVdonphan
p3912
VDonphan
p3913
sVterrakion
p3914
VTerrakion
p3915
sVblacksludge
p3916
VBlack Sludge
p3917
sVsilvallypsychic
p3918
VSilvally-Psychic
p3919
sVrelicsong
p3920
VRelic Song
p3921
sVsnaelstrom
p3922
VSnaelstrom
p3923
sVheliolisk
p3924
VHeliolisk
p3925
sVblazikenmega
p3926
VBlaziken-Mega
p3927
sVgastrodon
p3928
VGastrodon
p3929
sVbronzong
p3930
VBronzong
p3931
sVweavile
p3932
VWeavile
p3933
sVdewott
p3934
VDewott
p3935
sVchandelure
p3936
VChandelure
p3937
sVhaxorus
p3938
VHaxorus
p3939
sVsecretsword
p3940
VSecret Sword
p3941
sVowntempo
p3942
VOwn Tempo
p3943
sVhiddenpower
p3944
VHidden Power
p3945
sVrazorleaf
p3946
VRazor Leaf
p3947
sVpowerswap
p3948
VPower Swap
p3949
sVdragalge
p3950
VDragalge
p3951
sVgrasswhistle
p3952
VGrass Whistle
p3953
sVswampert
p3954
VSwampert
p3955
sVwynaut
p3956
VWynaut
p3957
sVpidgey
p3958
VPidgey
p3959
sVpoisoniumz
p3960
VPoisonium Z
p3961
sVaggronite
p3962
VAggronite
p3963
sVgenesect
p3964
VGenesect
p3965
sVlotad
p3966
VLotad
p3967
sVrkssystem
p3968
VRKS System
p3969
sVsilvallyice
p3970
VSilvally-Ice
p3971
sVvikavolttotem
p3972
VVikavolt-Totem
p3973
sVbind
p3974
VBind
p3975
sVcounter
p3976
VCounter
p3977
sVvikavolt
p3978
VVikavolt
p3979
sVfullincense
p3980
VFull Incense
p3981
sVfloatoy
p3982
VFloatoy
p3983
sVweepinbell
p3984
VWeepinbell
p3985
sVhitmonchan
p3986
VHitmonchan
p3987
sVfreezyfrost
p3988
VFreezy Frost
p3989
sVwoobat
p3990
VWoobat
p3991
sVaquajet
p3992
VAqua Jet
p3993
sVkrabby
p3994
VKrabby
p3995
sVumbreon
p3996
VUmbreon
p3997
sVdragonair
p3998
VDragonair
p3999
sVhitmontop
p4000
VHitmontop
p4001
sVheatproof
p4002
VHeatproof
p4003
sVmukalola
p4004
VMuk-Alola
p4005
sVguardswap
p4006
VGuard Swap
p4007
sVassaultvest
p4008
VAssault Vest
p4009
sVpetalblizzard
p4010
VPetal Blizzard
p4011
sVkadabra
p4012
VKadabra
p4013
sVpurepower
p4014
VPure Power
p4015
sVironball
p4016
VIron Ball
p4017
sVdreameater
p4018
VDream Eater
p4019
sVhelpinghand
p4020
VHelping Hand
p4021
sVmunchlax
p4022
VMunchlax
p4023
sVzenheadbutt
p4024
VZen Headbutt
p4025
sVdoubleironbash
p4026
VDouble Iron Bash
p4027
sVpowertrip
p4028
VPower Trip
p4029
sVberryjuice
p4030
VBerry Juice
p4031
sVhiddenpowerflying
p4032
VHidden Power Flying
p4033
sVmilotic
p4034
VMilotic
p4035
sVpikachuoriginal
p4036
VPikachu-Original
p4037
sVpsychicsurge
p4038
VPsychic Surge
p4039
sVflail
p4040
VFlail
p4041
sVkabutops
p4042
VKabutops
p4043
sVhoothoot
p4044
VHoothoot
p4045
sVkoffing
p4046
VKoffing
p4047
sVtoxapex
p4048
VToxapex
p4049
sVarbok
p4050
VArbok
p4051
sVmagnitude
p4052
VMagnitude
p4053
sVarceusfighting
p4054
VArceus-Fighting
p4055
sVrapidspin
p4056
VRapid Spin
p4057
sVskullbash
p4058
VSkull Bash
p4059
sVdratini
p4060
VDratini
p4061
sVafteryou
p4062
VAfter You
p4063
sVmaractus
p4064
VMaractus
p4065
sVcrucibellite
p4066
VCrucibellite
p4067
sVmareanie
p4068
VMareanie
p4069
sVilluminate
p4070
VIlluminate
p4071
sVgallademega
p4072
VGallade-Mega
p4073
sVmagnetpull
p4074
VMagnet Pull
p4075
sVtepig
p4076
VTepig
p4077
sVkelpsyberry
p4078
VKelpsy Berry
p4079
sVstatic
p4080
VStatic
p4081
sVflameplate
p4082
VFlame Plate
p4083
sVicememory
p4084
VIce Memory
p4085
sVicefang
p4086
VIce Fang
p4087
sVvenonat
p4088
VVenonat
p4089
sVsilvallyfighting
p4090
VSilvally-Fighting
p4091
sVjoltik
p4092
VJoltik
p4093
sVrollingkick
p4094
VRolling Kick
p4095
sVoricorio
p4096
VOricorio
p4097
sVweatherball
p4098
VWeather Ball
p4099
sVshatteredpsyche
p4100
VShattered Psyche
p4101
sVmewniumz
p4102
VMewnium Z
p4103
sVmanectric
p4104
VManectric
p4105
sVnaturepower
p4106
VNature Power
p4107
sVregisteel
p4108
VRegisteel
p4109
sVsmog
p4110
VSmog
p4111
sVbabydolleyes
p4112
VBaby-Doll Eyes
p4113
sVleafguard
p4114
VLeaf Guard
p4115
sVicywind
p4116
VIcy Wind
p4117
sVemolga
p4118
VEmolga
p4119
sVmamoswine
p4120
VMamoswine
p4121
sVconkeldurr
p4122
VConkeldurr
p4123
sVduskstone
p4124
VDusk Stone
p4125
sVworkup
p4126
VWork Up
p4127
sVmetagrossite
p4128
VMetagrossite
p4129
sVhippowdon
p4130
VHippowdon
p4131
sVenigmaberry
p4132
VEnigma Berry
p4133
sVscatterbug
p4134
VScatterbug
p4135
sVaromaveil
p4136
VAroma Veil
p4137
sVcorrosion
p4138
VCorrosion
p4139
sVtropkick
p4140
VTrop Kick
p4141
sVsudowoodo
p4142
VSudowoodo
p4143
sVlarvitar
p4144
VLarvitar
p4145
sVheadbutt
p4146
VHeadbutt
p4147
sVsacredsword
p4148
VSacred Sword
p4149
sVbodyslam
p4150
VBody Slam
p4151
sVbugbuzz
p4152
VBug Buzz
p4153
sVfirefang
p4154
VFire Fang
p4155
sVdiancite
p4156
VDiancite
p4157
sVampharosmega
p4158
VAmpharos-Mega
p4159
sVmistball
p4160
VMist Ball
p4161
sVskrelp
p4162
VSkrelp
p4163
sVjumpkick
p4164
VJump Kick
p4165
sVninetalesalola
p4166
VNinetales-Alola
p4167
sVwaterspout
p4168
VWater Spout
p4169
sVpsychicmemory
p4170
VPsychic Memory
p4171
sVloudred
p4172
VLoudred
p4173
sVearthpower
p4174
VEarth Power
p4175
sVblissey
p4176
VBlissey
p4177
sVpikachukalos
p4178
VPikachu-Kalos
p4179
sVpremierball
p4180
VPremier Ball
p4181
sVrotomfrost
p4182
VRotom-Frost
p4183
sVsolidrock
p4184
VSolid Rock
p4185
sVhonedge
p4186
VHonedge
p4187
sVrabutaberry
p4188
VRabuta Berry
p4189
sVagility
p4190
VAgility
p4191
sVelectabuzz
p4192
VElectabuzz
p4193
sVhoopaunbound
p4194
VHoopa-Unbound
p4195
sVfomantis
p4196
VFomantis
p4197
sVsachet
p4198
VSachet
p4199
sVcrobat
p4200
VCrobat
p4201
sVrockblast
p4202
VRock Blast
p4203
sVslackoff
p4204
VSlack Off
p4205
sVprivatyke
p4206
VPrivatyke
p4207
sVsoftsand
p4208
VSoft Sand
p4209
sVsigilyph
p4210
VSigilyph
p4211
sVdeepseatooth
p4212
VDeep Sea Tooth
p4213
sVtorkoal
p4214
VTorkoal
p4215
sVwurmple
p4216
VWurmple
p4217
sVtapulele
p4218
VTapu Lele
p4219
sVsunsteelstrike
p4220
VSunsteel Strike
p4221
sVgrimeralola
p4222
VGrimer-Alola
p4223
sVtimburr
p4224
VTimburr
p4225
sVsealeo
p4226
VSealeo
p4227
sVpoisonfang
p4228
VPoison Fang
p4229
sVinsectplate
p4230
VInsect Plate
p4231
sVtorrent
p4232
VTorrent
p4233
sVencore
p4234
VEncore
p4235
sVquickball
p4236
VQuick Ball
p4237
sVtrapinch
p4238
VTrapinch
p4239
sVbonerush
p4240
VBone Rush
p4241
sVgentle
p4242
VGentle
p4243
sVtorment
p4244
VTorment
p4245
sVarceusflying
p4246
VArceus-Flying
p4247
sVzebstrika
p4248
VZebstrika
p4249
sVwhitesmoke
p4250
VWhite Smoke
p4251
sVlevelball
p4252
VLevel Ball
p4253
sVsoak
p4254
VSoak
p4255
sVfusionbolt
p4256
VFusion Bolt
p4257
sVflareon
p4258
VFlareon
p4259
sVcalmmind
p4260
VCalm Mind
p4261
sVdiamondstorm
p4262
VDiamond Storm
p4263
sVgravity
p4264
VGravity
p4265
sVcarnivine
p4266
VCarnivine
p4267
sVgrassgem
p4268
VGrass Gem
p4269
sVfleurcannon
p4270
VFleur Cannon
p4271
sVpsychoboost
p4272
VPsycho Boost
p4273
sVnuzleaf
p4274
VNuzleaf
p4275
sVwidelens
p4276
VWide Lens
p4277
sVshadowball
p4278
VShadow Ball
p4279
sVdrifblim
p4280
VDrifblim
p4281
sVgoldeen
p4282
VGoldeen
p4283
sVmewtwo
p4284
VMewtwo
p4285
sVrollout
p4286
VRollout
p4287
sVslurpuff
p4288
VSlurpuff
p4289
sVdracometeor
p4290
VDraco Meteor
p4291
sVsludgewave
p4292
VSludge Wave
p4293
sVsceptile
p4294
VSceptile
p4295
sVaraquanid
p4296
VAraquanid
p4297
sVgardevoirite
p4298
VGardevoirite
p4299
sVexeggutor
p4300
VExeggutor
p4301
sVshedskin
p4302
VShed Skin
p4303
sVcherrimsunshine
p4304
VCherrim-Sunshine
p4305
sVarceus
p4306
VArceus
p4307
sVimpish
p4308
VImpish
p4309
sVservine
p4310
VServine
p4311
sVwailmer
p4312
VWailmer
p4313
sVbrine
p4314
VBrine
p4315
sVdawnstone
p4316
VDawn Stone
p4317
sVsleeppowder
p4318
VSleep Powder
p4319
sVoldamber
p4320
VOld Amber
p4321
sVsnover
p4322
VSnover
p4323
sVmumbao
p4324
VMumbao
p4325
sVdurant
p4326
VDurant
p4327
sVdarkiniumz
p4328
VDarkinium Z
p4329
sVsimplebeam
p4330
VSimple Beam
p4331
sVyveltal
p4332
VYveltal
p4333
sVbrickbreak
p4334
VBrick Break
p4335
sVrash
p4336
VRash
p4337
sVpiplup
p4338
VPiplup
p4339
sVflashfire
p4340
VFlash Fire
p4341
sVelectricmemory
p4342
VElectric Memory
p4343
sValoraichiumz
p4344
VAloraichium Z
p4345
sVpikipek
p4346
VPikipek
p4347
sVdeino
p4348
VDeino
p4349
sVcamerupt
p4350
VCamerupt
p4351
sVluckypunch
p4352
VLucky Punch
p4353
sVpurrloin
p4354
VPurrloin
p4355
sVrarebone
p4356
VRare Bone
p4357
sVsolosis
p4358
VSolosis
p4359
sVtangaberry
p4360
VTanga Berry
p4361
sVbellydrum
p4362
VBelly Drum
p4363
sVsassy
p4364
VSassy
p4365
sVdeoxysattack
p4366
VDeoxys-Attack
p4367
sVcroagunk
p4368
VCroagunk
p4369
sVbravebird
p4370
VBrave Bird
p4371
sVgust
p4372
VGust
p4373
sVmagicguard
p4374
VMagic Guard
p4375
sVpikapapow
p4376
VPika Papow
p4377
sVsandattack
p4378
VSand Attack
p4379
sVkingler
p4380
VKingler
p4381
sVhugepower
p4382
VHuge Power
p4383
sVmudbomb
p4384
VMud Bomb
p4385
sVdartrix
p4386
VDartrix
p4387
sVsheercold
p4388
VSheer Cold
p4389
sVgeomancy
p4390
VGeomancy
p4391
sVleafstone
p4392
VLeaf Stone
p4393
sVcacturne
p4394
VCacturne
p4395
sVpowder
p4396
VPowder
p4397
sVvictini
p4398
VVictini
p4399
sVfinneon
p4400
VFinneon
p4401
sVtwineedle
p4402
VTwineedle
p4403
sVchestoberry
p4404
VChesto Berry
p4405
sVgrumpig
p4406
VGrumpig
p4407
sVbuginiumz
p4408
VBuginium Z
p4409
sVnightmare
p4410
VNightmare
p4411
sVgyarados
p4412
VGyarados
p4413
sVlycaniumz
p4414
VLycanium Z
p4415
sVvaporeon
p4416
VVaporeon
p4417
sVthunderwave
p4418
VThunder Wave
p4419
sVrockincense
p4420
VRock Incense
p4421
sVfroslass
p4422
VFroslass
p4423
sVaron
p4424
VAron
p4425
sVconversion2
p4426
VConversion 2
p4427
sVmysticalfire
p4428
VMystical Fire
p4429
sVzoroark
p4430
VZoroark
p4431
sVshellsmash
p4432
VShell Smash
p4433
sVhydropump
p4434
VHydro Pump
p4435
sVswift
p4436
VSwift
p4437
sVmemento
p4438
VMemento
p4439
sVmetang
p4440
VMetang
p4441
sVklinklang
p4442
VKlinklang
p4443
sVaerodactyl
p4444
VAerodactyl
p4445
sVtailwhip
p4446
VTail Whip
p4447
sVsceptilite
p4448
VSceptilite
p4449
sVsafetygoggles
p4450
VSafety Goggles
p4451
sVklang
p4452
VKlang
p4453
sVgreninjaash
p4454
VGreninja-Ash
p4455
sVswallow
p4456
VSwallow
p4457
sVspritzee
p4458
VSpritzee
p4459
sVflabebe
p4460
VFlabe\u0301be\u0301
p4461
sVnumel
p4462
VNumel
p4463
sVwoodhammer
p4464
VWood Hammer
p4465
sVhiddenpowerwater
p4466
VHidden Power Water
p4467
sVmalaconda
p4468
VMalaconda
p4469
sVgible
p4470
VGible
p4471
sVovercoat
p4472
VOvercoat
p4473
sVekans
p4474
VEkans
p4475
sVsharpedomega
p4476
VSharpedo-Mega
p4477
sVpixieplate
p4478
VPixie Plate
p4479
sVvolkritter
p4480
VVolkritter
p4481
sVdugtrio
p4482
VDugtrio
p4483
sVdisarmingvoice
p4484
VDisarming Voice
p4485
sVwailord
p4486
VWailord
p4487
sVswoobat
p4488
VSwoobat
p4489
sVelectrify
p4490
VElectrify
p4491
sVdazzling
p4492
VDazzling
p4493
sVoricoriosensu
p4494
VOricorio-Sensu
p4495
sVkeldeo
p4496
VKeldeo
p4497
sVrattata
p4498
VRattata
p4499
sVgirafarig
p4500
VGirafarig
p4501
sVtomohawk
p4502
VTomohawk
p4503
sVivysaur
p4504
VIvysaur
p4505
sVhorndrill
p4506
VHorn Drill
p4507
sVcoverfossil
p4508
VCover Fossil
p4509
sVgraveler
p4510
VGraveler
p4511
sVsmeargle
p4512
VSmeargle
p4513
sVmetagrossmega
p4514
VMetagross-Mega
p4515
sVraindance
p4516
VRain Dance
p4517
sVbreezi
p4518
VBreezi
p4519
sVinfestation
p4520
VInfestation
p4521
sVvoodoll
p4522
VVoodoll
p4523
sVpresent
p4524
VPresent
p4525
sVgrovyle
p4526
VGrovyle
p4527
sVpokestarf002
p4528
VPokestar F-002
p4529
sVintimidate
p4530
VIntimidate
p4531
sVharden
p4532
VHarden
p4533
sVpowerweight
p4534
VPower Weight
p4535
sVflaaffy
p4536
VFlaaffy
p4537
sVbeheeyem
p4538
VBeheeyem
p4539
sVwhirlpool
p4540
VWhirlpool
p4541
sVpelipper
p4542
VPelipper
p4543
sVthickfat
p4544
VThick Fat
p4545
sVcarracosta
p4546
VCarracosta
p4547
sVluxio
p4548
VLuxio
p4549
sVvullaby
p4550
VVullaby
p4551
sVhiddenpowerghost
p4552
VHidden Power Ghost
p4553
sVlightball
p4554
VLight Ball
p4555
sVwaterveil
p4556
VWater Veil
p4557
sVspelltag
p4558
VSpell Tag
p4559
sVdeoxysdefense
p4560
VDeoxys-Defense
p4561
sVzekrom
p4562
VZekrom
p4563
sVaipom
p4564
VAipom
p4565
sVdefiant
p4566
VDefiant
p4567
sVhardstone
p4568
VHard Stone
p4569
sVkebiaberry
p4570
VKebia Berry
p4571
sVbergmite
p4572
VBergmite
p4573
sVcascoon
p4574
VCascoon
p4575
sVbelch
p4576
VBelch
p4577
sVmindblown
p4578
VMind Blown
p4579
sVmagcargo
p4580
VMagcargo
p4581
sVabsorb
p4582
VAbsorb
p4583
sVpikachuhoenn
p4584
VPikachu-Hoenn
p4585
sVraindish
p4586
VRain Dish
p4587
sVseaking
p4588
VSeaking
p4589
sVmagician
p4590
VMagician
p4591
sVdragoniumz
p4592
VDragonium Z
p4593
sVairlock
p4594
VAir Lock
p4595
sVbabiriberry
p4596
VBabiri Berry
p4597
sVprotector
p4598
VProtector
p4599
sVeelektross
p4600
VEelektross
p4601
sVpickpocket
p4602
VPickpocket
p4603
sVsitrusberry
p4604
VSitrus Berry
p4605
sVarceuspsychic
p4606
VArceus-Psychic
p4607
sVbeautifly
p4608
VBeautifly
p4609
sVwormadamtrash
p4610
VWormadam-Trash
p4611
sVvenoshock
p4612
VVenoshock
p4613
sVsilvallyfairy
p4614
VSilvally-Fairy
p4615
sVbouncybubble
p4616
VBouncy Bubble
p4617
sVmudsport
p4618
VMud Sport
p4619
sVazelf
p4620
VAzelf
p4621
sVyanmega
p4622
VYanmega
p4623
sVnaviathan
p4624
VNaviathan
p4625
sVfairyaura
p4626
VFairy Aura
p4627
sVpsychicseed
p4628
VPsychic Seed
p4629
sVpinsir
p4630
VPinsir
p4631
sVrotom
p4632
VRotom
p4633
sVguts
p4634
VGuts
p4635
sVtauros
p4636
VTauros
p4637
sVnatu
p4638
VNatu
p4639
sVfaketears
p4640
VFake Tears
p4641
sVbattery
p4642
VBattery
p4643
sVaromaticmist
p4644
VAromatic Mist
p4645
sVbeedrillite
p4646
VBeedrillite
p4647
sVconfide
p4648
VConfide
p4649
sVleechlife
p4650
VLeech Life
p4651
sVaegislash
p4652
VAegislash
p4653
sVkingsshield
p4654
VKing's Shield
p4655
sVkingsrock
p4656
VKing's Rock
p4657
sVblukberry
p4658
VBluk Berry
p4659
sVflowershield
p4660
VFlower Shield
p4661
sVarenatrap
p4662
VArena Trap
p4663
sVtaunt
p4664
VTaunt
p4665
sVlaserfocus
p4666
VLaser Focus
p4667
sVducklett
p4668
VDucklett
p4669
sVgreninja
p4670
VGreninja
p4671
sVreapercloth
p4672
VReaper Cloth
p4673
sVdhelmise
p4674
VDhelmise
p4675
sVbudew
p4676
VBudew
p4677
sVgogoat
p4678
VGogoat
p4679
sVlilligant
p4680
VLilligant
p4681
sVhealball
p4682
VHeal Ball
p4683
sVphanpy
p4684
VPhanpy
p4685
sVaudinite
p4686
VAudinite
p4687
sVimprison
p4688
VImprison
p4689
sVrepeatball
p4690
VRepeat Ball
p4691
sVglare
p4692
VGlare
p4693
sVjangmoo
p4694
VJangmo-o
p4695
sVthief
p4696
VThief
p4697
sVhail
p4698
VHail
p4699
sVcofagrigus
p4700
VCofagrigus
p4701
sVwepearberry
p4702
VWepear Berry
p4703
sVskarmory
p4704
VSkarmory
p4705
sVpersimberry
p4706
VPersim Berry
p4707
sVdragonclaw
p4708
VDragon Claw
p4709
sVdrizzle
p4710
VDrizzle
p4711
sVzygarde10
p4712
VZygarde-10%
p4713
sVstaraptor
p4714
VStaraptor
p4715
sVmagicalleaf
p4716
VMagical Leaf
p4717
sVforcepalm
p4718
VForce Palm
p4719
sVhurricane
p4720
VHurricane
p4721
sVlileep
p4722
VLileep
p4723
sVpiloswine
p4724
VPiloswine
p4725
sVjudgment
p4726
VJudgment
p4727
sVvenusaurite
p4728
VVenusaurite
p4729
sVraichu
p4730
VRaichu
p4731
sVcyclohm
p4732
VCyclohm
p4733
sVhappiny
p4734
VHappiny
p4735
sVpressure
p4736
VPressure
p4737
sVsilkscarf
p4738
VSilk Scarf
p4739
sVpidgeotto
p4740
VPidgeotto
p4741
sVdreadplate
p4742
VDread Plate
p4743
sVsableyemega
p4744
VSableye-Mega
p4745
sVfurret
p4746
VFurret
p4747
sVpsystrike
p4748
VPsystrike
p4749
sVmiltank
p4750
VMiltank
p4751
sVmeteormash
p4752
VMeteor Mash
p4753
sVshucaberry
p4754
VShuca Berry
p4755
sVrockmemory
p4756
VRock Memory
p4757
sVsweetkiss
p4758
VSweet Kiss
p4759
sVacidarmor
p4760
VAcid Armor
p4761
sVlightclay
p4762
VLight Clay
p4763
sVvoodoom
p4764
VVoodoom
p4765
sVblueorb
p4766
VBlue Orb
p4767
sVfeintattack
p4768
VFeint Attack
p4769
sVburmy
p4770
VBurmy
p4771
sVgrassysurge
p4772
VGrassy Surge
p4773
sVcaimanoe
p4774
VCaimanoe
p4775
sVmagostberry
p4776
VMagost Berry
p4777
sVgrasspelt
p4778
VGrass Pelt
p4779
sVicestone
p4780
VIce Stone
p4781
sVspitup
p4782
VSpit Up
p4783
sVstamina
p4784
VStamina
p4785
sVrockthrow
p4786
VRock Throw
p4787
sVroseliberry
p4788
VRoseli Berry
p4789
sVfrustration
p4790
VFrustration
p4791
sVambipom
p4792
VAmbipom
p4793
sVsolgaleo
p4794
VSolgaleo
p4795
sVfollowme
p4796
VFollow Me
p4797
sVclauncher
p4798
VClauncher
p4799
sVquickpowder
p4800
VQuick Powder
p4801
sVfrenzyplant
p4802
VFrenzy Plant
p4803
sVclearbody
p4804
VClear Body
p4805
sVpowerofalchemy
p4806
VPower of Alchemy
p4807
sVmagoberry
p4808
VMago Berry
p4809
sVcroconaw
p4810
VCroconaw
p4811
sVdrowzee
p4812
VDrowzee
p4813
sVserenegrace
p4814
VSerene Grace
p4815
sVoceanicoperetta
p4816
VOceanic Operetta
p4817
sVheracronite
p4818
VHeracronite
p4819
sVtechnician
p4820
VTechnician
p4821
sVarceusgrass
p4822
VArceus-Grass
p4823
sVmorelull
p4824
VMorelull
p4825
sVembargo
p4826
VEmbargo
p4827
sVpikachuunova
p4828
VPikachu-Unova
p4829
sVmetronome
p4830
VMetronome
p4831
sVattackorder
p4832
VAttack Order
p4833
sVallyswitch
p4834
VAlly Switch
p4835
sVwish
p4836
VWish
p4837
sVentrainment
p4838
VEntrainment
p4839
sVpoisonheal
p4840
VPoison Heal
p4841
sVpyukumuku
p4842
VPyukumuku
p4843
sVscizormega
p4844
VScizor-Mega
p4845
sVthroatchop
p4846
VThroat Chop
p4847
sVhoneclaws
p4848
VHone Claws
p4849
sVgrassmemory
p4850
VGrass Memory
p4851
sVpikachurockstar
p4852
VPikachu-Rock-Star
p4853
sVoranberry
p4854
VOran Berry
p4855
sVmarshadow
p4856
VMarshadow
p4857
sVninjask
p4858
VNinjask
p4859
sVslowstart
p4860
VSlow Start
p4861
sVweakarmor
p4862
VWeak Armor
p4863
sVaurasphere
p4864
VAura Sphere
p4865
sVshelgon
p4866
VShelgon
p4867
sVrawstberry
p4868
VRawst Berry
p4869
sVshadowbone
p4870
VShadow Bone
p4871
sVpokestarblackbelt
p4872
VPokestar Black Belt
p4873
sVvacuumwave
p4874
VVacuum Wave
p4875
sVillusion
p4876
VIllusion
p4877
sVroleplay
p4878
VRole Play
p4879
sVyacheberry
p4880
VYache Berry
p4881
sVelectriumz
p4882
VElectrium Z
p4883
sVtreecko
p4884
VTreecko
p4885
sVicehammer
p4886
VIce Hammer
p4887
sVbraviary
p4888
VBraviary
p4889
sVvivillon
p4890
VVivillon
p4891
sVnoguard
p4892
VNo Guard
p4893
sVsalamencemega
p4894
VSalamence-Mega
p4895
sVabomasite
p4896
VAbomasite
p4897
sVstarmie
p4898
VStarmie
p4899
sVpersistent
p4900
VPersistent
p4901
sVmagmar
p4902
VMagmar
p4903
sVzangoose
p4904
VZangoose
p4905
sVvivillonfancy
p4906
VVivillon-Fancy
p4907
sVvanilluxe
p4908
VVanilluxe
p4909
s.