(dp1
Velectivire
p2
VElectivire
p3
sVanchorshot
p4
VAnchor Shot
p5
sVheracross
p6
VHeracross
p7
sVcolorchange
p8
VColor Change
p9
sVgmaxvoltcrash
p10
VG-Max Volt Crash
p11
sVlucarionite
p12
VLucarionite
p13
sVpalkia
p14
VPalkia
p15
sVchatter
p16
VChatter
p17
sValakazite
p18
VAlakazite
p19
sVtickle
p20
VTickle
p21
sVarceuselectric
p22
VArceus-Electric
p23
sVabra
p24
VAbra
p25
sVexeggutoralola
p26
VExeggutor-Alola
p27
sVrecycle
p28
VRecycle
p29
sVtimerball
p30
VTimer Ball
p31
sVsteeliumz
p32
VSteelium Z
p33
sVsharpbeak
p34
VSharp Beak
p35
sVmewtwonitex
p36
VMewtwonite X
p37
sVmewtwonitey
p38
VMewtwonite Y
p39
sVquickclaw
p40
VQuick Claw
p41
sVoricoriopompom
p42
VOricorio-Pom-Pom
p43
sVneuroforce
p44
VNeuroforce
p45
sVdoubleslap
p46
VDouble Slap
p47
sVboltund
p48
VBoltund
p49
sVlurantis
p50
VLurantis
p51
sVeviolite
p52
VEviolite
p53
sVprotean
p54
VProtean
p55
sVsquirtle
p56
VSquirtle
p57
sVdiglettalola
p58
VDiglett-Alola
p59
sVdarmanitanzen
p60
VDarmanitan-Zen
p61
sVscaleshot
p62
VScale Shot
p63
sVwormadam
p64
VWormadam
p65
sVmiracleberry
p66
VMiracle Berry
p67
sVaggronmega
p68
VAggron-Mega
p69
sVwhirlwind
p70
VWhirlwind
p71
sVblastoisegmax
p72
VBlastoise-Gmax
p73
sVplumefossil
p74
VPlume Fossil
p75
sVcherrim
p76
VCherrim
p77
sVhiddenpowerelectric
p78
VHidden Power Electric
p79
sVhiddenpowerfire
p80
VHidden Power Fire
p81
sVguillotine
p82
VGuillotine
p83
sVlevitate
p84
VLevitate
p85
sVgyaradosite
p86
VGyaradosite
p87
sVpomegberry
p88
VPomeg Berry
p89
sVpokestargiant
p90
VPokestar Giant
p91
sVmasquerain
p92
VMasquerain
p93
sVaccelerock
p94
VAccelerock
p95
sVthunder
p96
VThunder
p97
sVhaze
p98
VHaze
p99
sVdarkgem
p100
VDark Gem
p101
sVpokestarmt2
p102
VPokestar MT2
p103
sVfraxure
p104
VFraxure
p105
sVmoldbreaker
p106
VMold Breaker
p107
sVcrunch
p108
VCrunch
p109
sVrindoberry
p110
VRindo Berry
p111
sVlatiosite
p112
VLatiosite
p113
sVreflecttype
p114
VReflect Type
p115
sVdugtrio
p116
VDugtrio
p117
sVflipturn
p118
VFlip Turn
p119
sVsnivy
p120
VSnivy
p121
sVmefirst
p122
VMe First
p123
sVstarfberry
p124
VStarf Berry
p125
sVscizorite
p126
VScizorite
p127
sVmew
p128
VMew
p129
sVpursuit
p130
VPursuit
p131
sVheadsmash
p132
VHead Smash
p133
sVaftermath
p134
VAftermath
p135
sVmintberry
p136
VMint Berry
p137
sVclawitzer
p138
VClawitzer
p139
sVcoalossal
p140
VCoalossal
p141
sVpixilate
p142
VPixilate
p143
sVtornadustherian
p144
VTornadus-Therian
p145
sVmoonstone
p146
VMoon Stone
p147
sVlunatone
p148
VLunatone
p149
sVsinisteaantique
p150
VSinistea-Antique
p151
sVpunishment
p152
VPunishment
p153
sVpoisontouch
p154
VPoison Touch
p155
sVfeebas
p156
VFeebas
p157
sVgmaxwildfire
p158
VG-Max Wildfire
p159
sVneedlearm
p160
VNeedle Arm
p161
sValtarianite
p162
VAltarianite
p163
sVblastburn
p164
VBlast Burn
p165
sVhonchkrow
p166
VHonchkrow
p167
sVtelepathy
p168
VTelepathy
p169
sVschooling
p170
VSchooling
p171
sVtirtouga
p172
VTirtouga
p173
sVampharos
p174
VAmpharos
p175
sVdusclops
p176
VDusclops
p177
sVpoisonbarb
p178
VPoison Barb
p179
sVmorningsun
p180
VMorning Sun
p181
sVfreezedry
p182
VFreeze-Dry
p183
sVmandibuzz
p184
VMandibuzz
p185
sVoverheat
p186
VOverheat
p187
sVwishiwashischool
p188
VWishiwashi-School
p189
sVspiritomb
p190
VSpiritomb
p191
sVvoltabsorb
p192
VVolt Absorb
p193
sVpurugly
p194
VPurugly
p195
sVshiftgear
p196
VShift Gear
p197
sVvenomoth
p198
VVenomoth
p199
sVfirstimpression
p200
VFirst Impression
p201
sVcastformrainy
p202
VCastform-Rainy
p203
sVbigroot
p204
VBig Root
p205
sVaromaveil
p206
VAroma Veil
p207
sVduraludon
p208
VDuraludon
p209
sVgardevoir
p210
VGardevoir
p211
sVsheerforce
p212
VSheer Force
p213
sVmagnetrise
p214
VMagnet Rise
p215
sVhelioptile
p216
VHelioptile
p217
sVreuniclus
p218
VReuniclus
p219
sVbeastboost
p220
VBeast Boost
p221
sVsceptilemega
p222
VSceptile-Mega
p223
sVlunge
p224
VLunge
p225
sVpowerofalchemy
p226
VPower of Alchemy
p227
sVcorrosion
p228
VCorrosion
p229
sVbeastball
p230
VBeast Ball
p231
sVkitsunoh
p232
VKitsunoh
p233
sVarceusbug
p234
VArceus-Bug
p235
sVgranbull
p236
VGranbull
p237
sVmeditite
p238
VMeditite
p239
sVgengarmega
p240
VGengar-Mega
p241
sVpidgeot
p242
VPidgeot
p243
sVstakataka
p244
VStakataka
p245
sVsilvallypoison
p246
VSilvally-Poison
p247
sVchewtle
p248
VChewtle
p249
sVtangledfeet
p250
VTangled Feet
p251
sVigglybuff
p252
VIgglybuff
p253
sVonix
p254
VOnix
p255
sVgrimer
p256
VGrimer
p257
sVrototiller
p258
VRototiller
p259
sVlucariomega
p260
VLucario-Mega
p261
sVbugbite
p262
VBug Bite
p263
sVpoisongas
p264
VPoison Gas
p265
sVmakuhita
p266
VMakuhita
p267
sVtympole
p268
VTympole
p269
sVfriendball
p270
VFriend Ball
p271
sVtartapple
p272
VTart Apple
p273
sVwigglytuff
p274
VWigglytuff
p275
sVattract
p276
VAttract
p277
sVcharizarditey
p278
VCharizardite Y
p279
sVcharizarditex
p280
VCharizardite X
p281
sVhyperspacehole
p282
VHyperspace Hole
p283
sVskydrop
p284
VSky Drop
p285
sVcrabhammer
p286
VCrabhammer
p287
sVtoxic
p288
VToxic
p289
sVcastformsunny
p290
VCastform-Sunny
p291
sVrotomheat
p292
VRotom-Heat
p293
sVperrserker
p294
VPerrserker
p295
sVsportball
p296
VSport Ball
p297
sVpoisonpowder
p298
VPoison Powder
p299
sVredcard
p300
VRed Card
p301
sVmodest
p302
VModest
p303
sVtynamo
p304
VTynamo
p305
sVrocktomb
p306
VRock Tomb
p307
sVdrizzile
p308
VDrizzile
p309
sVcherubi
p310
VCherubi
p311
sVbuzzybuzz
p312
VBuzzy Buzz
p313
sVflapplegmax
p314
VFlapple-Gmax
p315
sVpoweranklet
p316
VPower Anklet
p317
sVgumshoostotem
p318
VGumshoos-Totem
p319
sVspookyplate
p320
VSpooky Plate
p321
sVtoxtricitylowkey
p322
VToxtricity-Low-Key
p323
sVhasty
p324
VHasty
p325
sVraichualola
p326
VRaichu-Alola
p327
sVentei
p328
VEntei
p329
sVdecidueye
p330
VDecidueye
p331
sVarceussteel
p332
VArceus-Steel
p333
sVtogedemarutotem
p334
VTogedemaru-Totem
p335
sVcobaberry
p336
VCoba Berry
p337
sVlaggingtail
p338
VLagging Tail
p339
sVfinalgambit
p340
VFinal Gambit
p341
sVrapidash
p342
VRapidash
p343
sVblacephalon
p344
VBlacephalon
p345
sVpikachugmax
p346
VPikachu-Gmax
p347
sVdoubleteam
p348
VDouble Team
p349
sVlumineon
p350
VLumineon
p351
sVgligar
p352
VGligar
p353
sVshielddust
p354
VShield Dust
p355
sVmagicbounce
p356
VMagic Bounce
p357
sVfakeout
p358
VFake Out
p359
sVsludge
p360
VSludge
p361
sVvenusaur
p362
VVenusaur
p363
sVphione
p364
VPhione
p365
sVmindplate
p366
VMind Plate
p367
sVgrassyseed
p368
VGrassy Seed
p369
sVflameburst
p370
VFlame Burst
p371
sValcremie
p372
VAlcremie
p373
sVhatenna
p374
VHatenna
p375
sVzapplate
p376
VZap Plate
p377
sVmunna
p378
VMunna
p379
sVzaciancrowned
p380
VZacian-Crowned
p381
sVdragonscale
p382
VDragon Scale
p383
sVjawfossil
p384
VJaw Fossil
p385
sVnihilego
p386
VNihilego
p387
sVmimikyu
p388
VMimikyu
p389
sVkricketot
p390
VKricketot
p391
sVsilicobra
p392
VSilicobra
p393
sVgroundiumz
p394
VGroundium Z
p395
sVroost
p396
VRoost
p397
sVfurycutter
p398
VFury Cutter
p399
sVirontail
p400
VIron Tail
p401
sVclangingscales
p402
VClanging Scales
p403
sVheatmor
p404
VHeatmor
p405
sVeggbomb
p406
VEgg Bomb
p407
sVluxray
p408
VLuxray
p409
sVpayback
p410
VPayback
p411
sVurshifu
p412
VUrshifu
p413
sVcursola
p414
VCursola
p415
sVexcadrill
p416
VExcadrill
p417
sVeeveegmax
p418
VEevee-Gmax
p419
sVgloom
p420
VGloom
p421
sVgluttony
p422
VGluttony
p423
sVtapukoko
p424
VTapu Koko
p425
sVvulpix
p426
VVulpix
p427
sVcradily
p428
VCradily
p429
sVwimpod
p430
VWimpod
p431
sVthunderfang
p432
VThunder Fang
p433
sVblastoisemega
p434
VBlastoise-Mega
p435
sVespeon
p436
VEspeon
p437
sVtogedemaru
p438
VTogedemaru
p439
sVgmaxmalodor
p440
VG-Max Malodor
p441
sVflameorb
p442
VFlame Orb
p443
sVpanpour
p444
VPanpour
p445
sVhiddenpowerdragon
p446
VHidden Power Dragon
p447
sVgmaxoneblow
p448
VG-Max One Blow
p449
sVfairywind
p450
VFairy Wind
p451
sVgothorita
p452
VGothorita
p453
sVomastar
p454
VOmastar
p455
sVwalrein
p456
VWalrein
p457
sVsawsbuck
p458
VSawsbuck
p459
sVtruant
p460
VTruant
p461
sVtr00
p462
VTR00
p463
sVqualotberry
p464
VQualot Berry
p465
sVflowergift
p466
VFlower Gift
p467
sVsuperluck
p468
VSuper Luck
p469
sVpsychic
p470
VPsychic
p471
sVvulpixalola
p472
VVulpix-Alola
p473
sVpalossand
p474
VPalossand
p475
sVwaterstone
p476
VWater Stone
p477
sVkasibberry
p478
VKasib Berry
p479
sVribombee
p480
VRibombee
p481
sVargalis
p482
VArgalis
p483
sVcottonguard
p484
VCotton Guard
p485
sVtornadus
p486
VTornadus
p487
sVshedshell
p488
VShed Shell
p489
sVbarrier
p490
VBarrier
p491
sVurshifurapidstrikegmax
p492
VUrshifu-Rapid-Strike-Gmax
p493
sVleftovers
p494
VLeftovers
p495
sVdragondarts
p496
VDragon Darts
p497
sVnastyplot
p498
VNasty Plot
p499
sVcoreenforcer
p500
VCore Enforcer
p501
sVsynchronoise
p502
VSynchronoise
p503
sVzippyzap
p504
VZippy Zap
p505
sVbestow
p506
VBestow
p507
sVtrumpcard
p508
VTrump Card
p509
sVstruggle
p510
VStruggle
p511
sVmrrime
p512
VMr. Rime
p513
sViceball
p514
VIce Ball
p515
sVgalladite
p516
VGalladite
p517
sVshiftry
p518
VShiftry
p519
sVfletchinder
p520
VFletchinder
p521
sVbeartic
p522
VBeartic
p523
sVkyuremblack
p524
VKyurem-Black
p525
sVsonicboom
p526
VSonic Boom
p527
sVpikachupartner
p528
VPikachu-Partner
p529
sVfightinggem
p530
VFighting Gem
p531
sVgroudonprimal
p532
VGroudon-Primal
p533
sVlatias
p534
VLatias
p535
sVdrainpunch
p536
VDrain Punch
p537
sVsteelixmega
p538
VSteelix-Mega
p539
sVwanderingspirit
p540
VWandering Spirit
p541
sVtapuniumz
p542
VTapunium Z
p543
sVcherishball
p544
VCherish Ball
p545
sVcheriberry
p546
VCheri Berry
p547
sVfightingmemory
p548
VFighting Memory
p549
sVnaughty
p550
VNaughty
p551
sVseedflare
p552
VSeed Flare
p553
sVhydrocannon
p554
VHydro Cannon
p555
sVmagneticflux
p556
VMagnetic Flux
p557
sVdeoxys
p558
VDeoxys
p559
sVursaring
p560
VUrsaring
p561
sVzamazentacrowned
p562
VZamazenta-Crowned
p563
sVlatiasmega
p564
VLatias-Mega
p565
sVrattataalola
p566
VRattata-Alola
p567
sVinstruct
p568
VInstruct
p569
sVembirch
p570
VEmbirch
p571
sVshieldon
p572
VShieldon
p573
sVslugma
p574
VSlugma
p575
sVheracrossmega
p576
VHeracross-Mega
p577
sVwaveincense
p578
VWave Incense
p579
sVmanectite
p580
VManectite
p581
sVinnardsout
p582
VInnards Out
p583
sVpikachupopstar
p584
VPikachu-Pop-Star
p585
sVmudsdale
p586
VMudsdale
p587
sVaircutter
p588
VAir Cutter
p589
sVgiratinaorigin
p590
VGiratina-Origin
p591
sVgrowlithe
p592
VGrowlithe
p593
sVejectpack
p594
VEject Pack
p595
sVdrillrun
p596
VDrill Run
p597
sVtwister
p598
VTwister
p599
sVarceusdragon
p600
VArceus-Dragon
p601
sVflamethrower
p602
VFlamethrower
p603
sVtoxicorb
p604
VToxic Orb
p605
sVfairylock
p606
VFairy Lock
p607
sVrockclimb
p608
VRock Climb
p609
sVwonderroom
p610
VWonder Room
p611
sVmegakick
p612
VMega Kick
p613
sVdoomdesire
p614
VDoom Desire
p615
sVmirrormove
p616
VMirror Move
p617
sVsandshrew
p618
VSandshrew
p619
sVpolitoed
p620
VPolitoed
p621
sVminun
p622
VMinun
p623
sVgmaxstonesurge
p624
VG-Max Stonesurge
p625
sVbelueberry
p626
VBelue Berry
p627
sVgeodudealola
p628
VGeodude-Alola
p629
sVfloralhealing
p630
VFloral Healing
p631
sVhoppip
p632
VHoppip
p633
sVfiriumz
p634
VFirium Z
p635
sVendure
p636
VEndure
p637
sVswiftswim
p638
VSwift Swim
p639
sVshellbell
p640
VShell Bell
p641
sVminus
p642
VMinus
p643
sVmeowth
p644
VMeowth
p645
sVsweetscent
p646
VSweet Scent
p647
sVwacanberry
p648
VWacan Berry
p649
sVsylveon
p650
VSylveon
p651
sVpayapaberry
p652
VPayapa Berry
p653
sVclosecombat
p654
VClose Combat
p655
sVgrotle
p656
VGrotle
p657
sVlaprasgmax
p658
VLapras-Gmax
p659
sVsilvallydark
p660
VSilvally-Dark
p661
sVhealer
p662
VHealer
p663
sVseel
p664
VSeel
p665
sVblastoise
p666
VBlastoise
p667
sVstrength
p668
VStrength
p669
sVchingling
p670
VChingling
p671
sVgothita
p672
VGothita
p673
sVyungoos
p674
VYungoos
p675
sVgmaxgravitas
p676
VG-Max Gravitas
p677
sVcraftyshield
p678
VCrafty Shield
p679
sVgyroball
p680
VGyro Ball
p681
sVsnom
p682
VSnom
p683
sVrhyperior
p684
VRhyperior
p685
sVgolbat
p686
VGolbat
p687
sVrhydon
p688
VRhydon
p689
sVsteelroller
p690
VSteel Roller
p691
sVgrassyterrain
p692
VGrassy Terrain
p693
sVdeoxysspeed
p694
VDeoxys-Speed
p695
sVpikachucosplay
p696
VPikachu-Cosplay
p697
sVshadowforce
p698
VShadow Force
p699
sVcoil
p700
VCoil
p701
sVdrought
p702
VDrought
p703
sVdevastatingdrake
p704
VDevastating Drake
p705
sVcosmicpower
p706
VCosmic Power
p707
sVlifedew
p708
VLife Dew
p709
sVhatterene
p710
VHatterene
p711
sVempoleon
p712
VEmpoleon
p713
sVthousandwaves
p714
VThousand Waves
p715
sVdunsparce
p716
VDunsparce
p717
sVnincada
p718
VNincada
p719
sVconstrict
p720
VConstrict
p721
sVvileplume
p722
VVileplume
p723
sVraticate
p724
VRaticate
p725
sVcinccino
p726
VCinccino
p727
sVjirachi
p728
VJirachi
p729
sVgolduck
p730
VGolduck
p731
sVaurorabeam
p732
VAurora Beam
p733
sVsteamengine
p734
VSteam Engine
p735
sVarmorfossil
p736
VArmor Fossil
p737
sVstickyweb
p738
VSticky Web
p739
sVlycanrocdusk
p740
VLycanroc-Dusk
p741
sVtogekiss
p742
VTogekiss
p743
sVhippopotas
p744
VHippopotas
p745
sVdialga
p746
VDialga
p747
sVlastresort
p748
VLast Resort
p749
sVpsychicterrain
p750
VPsychic Terrain
p751
sVbulletpunch
p752
VBullet Punch
p753
sVicegem
p754
VIce Gem
p755
sVspite
p756
VSpite
p757
sVcarbink
p758
VCarbink
p759
sVwaterpulse
p760
VWater Pulse
p761
sVstoutland
p762
VStoutland
p763
sVgenesissupernova
p764
VGenesis Supernova
p765
sVbidoof
p766
VBidoof
p767
sVlongreach
p768
VLong Reach
p769
sVtapulele
p770
VTapu Lele
p771
sVtarshot
p772
VTar Shot
p773
sVweedle
p774
VWeedle
p775
sVstarsweet
p776
VStar Sweet
p777
sVhoneygather
p778
VHoney Gather
p779
sVmachop
p780
VMachop
p781
sVmetalpowder
p782
VMetal Powder
p783
sVguardianofalola
p784
VGuardian of Alola
p785
sVdusknoir
p786
VDusknoir
p787
sVmeditate
p788
VMeditate
p789
sVreversal
p790
VReversal
p791
sVlunardance
p792
VLunar Dance
p793
sVcaribolt
p794
VCaribolt
p795
sVpumpkaboosmall
p796
VPumpkaboo-Small
p797
sVmimikyubusted
p798
VMimikyu-Busted
p799
sVpolteageist
p800
VPolteageist
p801
sVtentacool
p802
VTentacool
p803
sVpokeball
p804
VPoke Ball
p805
sVsilvally
p806
VSilvally
p807
sVhatterenegmax
p808
VHatterene-Gmax
p809
sVdiancie
p810
VDiancie
p811
sVplasmanta
p812
VPlasmanta
p813
sVnosepass
p814
VNosepass
p815
sVearthplate
p816
VEarth Plate
p817
sVlaxincense
p818
VLax Incense
p819
sVmagneton
p820
VMagneton
p821
sVstickyhold
p822
VSticky Hold
p823
sVbeatup
p824
VBeat Up
p825
sVleafblade
p826
VLeaf Blade
p827
sVfluffy
p828
VFluffy
p829
sVserperior
p830
VSerperior
p831
sVlopunnite
p832
VLopunnite
p833
sVwooper
p834
VWooper
p835
sVforretress
p836
VForretress
p837
sVmindreader
p838
VMind Reader
p839
sVseaincense
p840
VSea Incense
p841
sVstrawberrysweet
p842
VStrawberry Sweet
p843
sVsimisage
p844
VSimisage
p845
sVsolarblade
p846
VSolar Blade
p847
sVarcheops
p848
VArcheops
p849
sVheavymetal
p850
VHeavy Metal
p851
sVwormadamsandy
p852
VWormadam-Sandy
p853
sVpsychiumz
p854
VPsychium Z
p855
sVspiritshackle
p856
VSpirit Shackle
p857
sVcontinentalcrush
p858
VContinental Crush
p859
sVmuscleband
p860
VMuscle Band
p861
sVtwinkletackle
p862
VTwinkle Tackle
p863
sVmatblock
p864
VMat Block
p865
sVmoongeistbeam
p866
VMoongeist Beam
p867
sVeternabeam
p868
VEternabeam
p869
sVdoduo
p870
VDoduo
p871
sVmuk
p872
VMuk
p873
sVnecrozmadawnwings
p874
VNecrozma-Dawn-Wings
p875
sVmotordrive
p876
VMotor Drive
p877
sVconfusion
p878
VConfusion
p879
sVdualwingbeat
p880
VDual Wingbeat
p881
sVslowpoke
p882
VSlowpoke
p883
sVfrostbreath
p884
VFrost Breath
p885
sVvirizion
p886
VVirizion
p887
sVspinda
p888
VSpinda
p889
sVcosmoem
p890
VCosmoem
p891
sVmeadowplate
p892
VMeadow Plate
p893
sVparasect
p894
VParasect
p895
sVgourgeistsmall
p896
VGourgeist-Small
p897
sVadamantorb
p898
VAdamant Orb
p899
sVprotect
p900
VProtect
p901
sVsteenee
p902
VSteenee
p903
sVplaynice
p904
VPlay Nice
p905
sVsamurott
p906
VSamurott
p907
sVmenacingmoonrazemaelstrom
p908
VMenacing Moonraze Maelstrom
p909
sVreceiver
p910
VReceiver
p911
sVmawile
p912
VMawile
p913
sVchimecho
p914
VChimecho
p915
sVpetayaberry
p916
VPetaya Berry
p917
sVdoublade
p918
VDoublade
p919
sVpsychicseed
p920
VPsychic Seed
p921
sVconfide
p922
VConfide
p923
sVluckychant
p924
VLucky Chant
p925
sVleppaberry
p926
VLeppa Berry
p927
sVcorrosivegas
p928
VCorrosive Gas
p929
sVchlorophyll
p930
VChlorophyll
p931
sVbastiodon
p932
VBastiodon
p933
sVpersimberry
p934
VPersim Berry
p935
sVfierydance
p936
VFiery Dance
p937
sVfloatzel
p938
VFloatzel
p939
sVsmackdown
p940
VSmack Down
p941
sVcopycat
p942
VCopycat
p943
sVmeteorassault
p944
VMeteor Assault
p945
sVsalamencite
p946
VSalamencite
p947
sVbuneary
p948
VBuneary
p949
sVrevelationdance
p950
VRevelation Dance
p951
sVshockdrive
p952
VShock Drive
p953
sVnightdaze
p954
VNight Daze
p955
sVfriendguard
p956
VFriend Guard
p957
sVscaryface
p958
VScary Face
p959
sVbarraskewda
p960
VBarraskewda
p961
sVscorchingsands
p962
VScorching Sands
p963
sVmarowakalolatotem
p964
VMarowak-Alola-Totem
p965
sVsteamroller
p966
VSteamroller
p967
sVsalazzle
p968
VSalazzle
p969
sVicehammer
p970
VIce Hammer
p971
sVkakuna
p972
VKakuna
p973
sVpowertrick
p974
VPower Trick
p975
sVyanma
p976
VYanma
p977
sVsilvallyfire
p978
VSilvally-Fire
p979
sVchatot
p980
VChatot
p981
sVaciddownpour
p982
VAcid Downpour
p983
sVskittersmack
p984
VSkitter Smack
p985
sVmarshtomp
p986
VMarshtomp
p987
sVwickedblow
p988
VWicked Blow
p989
sVgurdurr
p990
VGurdurr
p991
sVsoundproof
p992
VSoundproof
p993
sVrufflet
p994
VRufflet
p995
sVslam
p996
VSlam
p997
sVthrash
p998
VThrash
p999
sVsandrush
p1000
VSand Rush
p1001
sVsliggoo
p1002
VSliggoo
p1003
sVtotodile
p1004
VTotodile
p1005
sVgarchompite
p1006
VGarchompite
p1007
sVslowbro
p1008
VSlowbro
p1009
sVprismaticlaser
p1010
VPrismatic Laser
p1011
sVnaganadel
p1012
VNaganadel
p1013
sValakazam
p1014
VAlakazam
p1015
sVbinacle
p1016
VBinacle
p1017
sVhitmonlee
p1018
VHitmonlee
p1019
sVmarowakalola
p1020
VMarowak-Alola
p1021
sVnevermeltice
p1022
VNever-Melt Ice
p1023
sVgrowl
p1024
VGrowl
p1025
sVarmaldo
p1026
VArmaldo
p1027
sVgrassyglide
p1028
VGrassy Glide
p1029
sVaguavberry
p1030
VAguav Berry
p1031
sVdrilbur
p1032
VDrilbur
p1033
sVcameruptite
p1034
VCameruptite
p1035
sVwhippeddream
p1036
VWhipped Dream
p1037
sVralts
p1038
VRalts
p1039
sVnaive
p1040
VNaive
p1041
sVrebound
p1042
VRebound
p1043
sVpupitar
p1044
VPupitar
p1045
sVindeedee
p1046
VIndeedee
p1047
sVslowking
p1048
VSlowking
p1049
sVpowerherb
p1050
VPower Herb
p1051
sVnoivern
p1052
VNoivern
p1053
sVwaterfall
p1054
VWaterfall
p1055
sVdewgong
p1056
VDewgong
p1057
sVflyiniumz
p1058
VFlyinium Z
p1059
sVkirlia
p1060
VKirlia
p1061
sVknockoff
p1062
VKnock Off
p1063
sVoctazooka
p1064
VOctazooka
p1065
sVcawmodore
p1066
VCawmodore
p1067
sVpikachubelle
p1068
VPikachu-Belle
p1069
sVluxuryball
p1070
VLuxury Ball
p1071
sVhydration
p1072
VHydration
p1073
sVkrokorok
p1074
VKrokorok
p1075
sVamoonguss
p1076
VAmoonguss
p1077
sVsilvallygrass
p1078
VSilvally-Grass
p1079
sVquilladin
p1080
VQuilladin
p1081
sVshellarmor
p1082
VShell Armor
p1083
sVpoliwag
p1084
VPoliwag
p1085
sVslushrush
p1086
VSlush Rush
p1087
sVmetalcoat
p1088
VMetal Coat
p1089
sVcompoundeyes
p1090
VCompound Eyes
p1091
sVthickclub
p1092
VThick Club
p1093
sVdugtrioalola
p1094
VDugtrio-Alola
p1095
sVdisguise
p1096
VDisguise
p1097
sVscizor
p1098
VScizor
p1099
sVfloetteeternal
p1100
VFloette-Eternal
p1101
sVkerfluffle
p1102
VKerfluffle
p1103
sVdracovish
p1104
VDracovish
p1105
sVbuggem
p1106
VBug Gem
p1107
sVdragonmemory
p1108
VDragon Memory
p1109
sVoshawott
p1110
VOshawott
p1111
sVtorterra
p1112
VTorterra
p1113
sVtogepi
p1114
VTogepi
p1115
sVdomefossil
p1116
VDome Fossil
p1117
sVadamant
p1118
VAdamant
p1119
sVlowkick
p1120
VLow Kick
p1121
sVhealbell
p1122
VHeal Bell
p1123
sVmirrorshot
p1124
VMirror Shot
p1125
sVtapufini
p1126
VTapu Fini
p1127
sVlickitung
p1128
VLickitung
p1129
sVsilcoon
p1130
VSilcoon
p1131
sVpassimian
p1132
VPassimian
p1133
sVlatiosmega
p1134
VLatios-Mega
p1135
sVsilvallybug
p1136
VSilvally-Bug
p1137
sVdragonrush
p1138
VDragon Rush
p1139
sVredorb
p1140
VRed Orb
p1141
sVapplin
p1142
VApplin
p1143
sVspinarak
p1144
VSpinarak
p1145
sVdiggersby
p1146
VDiggersby
p1147
sVsilverwind
p1148
VSilver Wind
p1149
sVmrmimegalar
p1150
VMr. Mime-Galar
p1151
sVsunnyday
p1152
VSunny Day
p1153
sVludicolo
p1154
VLudicolo
p1155
sVditto
p1156
VDitto
p1157
sVfossilizeddino
p1158
VFossilized Dino
p1159
sVcirclethrow
p1160
VCircle Throw
p1161
sVraboot
p1162
VRaboot
p1163
sVfullmetalbody
p1164
VFull Metal Body
p1165
sValloutpummeling
p1166
VAll-Out Pummeling
p1167
sVsmoguana
p1168
VSmoguana
p1169
sVinfernooverdrive
p1170
VInferno Overdrive
p1171
sVthunderstone
p1172
VThunder Stone
p1173
sVhiddenpowerpoison
p1174
VHidden Power Poison
p1175
sVflatter
p1176
VFlatter
p1177
sVtoxicspikes
p1178
VToxic Spikes
p1179
sVfirepledge
p1180
VFire Pledge
p1181
sVtactite
p1182
VTactite
p1183
sVmorpekohangry
p1184
VMorpeko-Hangry
p1185
sVgmaxdepletion
p1186
VG-Max Depletion
p1187
sVtr28
p1188
VTR28
p1189
sVtr29
p1190
VTR29
p1191
sVrolycoly
p1192
VRolycoly
p1193
sVtr24
p1194
VTR24
p1195
sVtr25
p1196
VTR25
p1197
sVtr26
p1198
VTR26
p1199
sVtr27
p1200
VTR27
p1201
sVtr20
p1202
VTR20
p1203
sVtr21
p1204
VTR21
p1205
sVcornnberry
p1206
VCornn Berry
p1207
sVtr23
p1208
VTR23
p1209
sVskullfossil
p1210
VSkull Fossil
p1211
sVcheekpouch
p1212
VCheek Pouch
p1213
sVuproar
p1214
VUproar
p1215
sVgoldberry
p1216
VGold Berry
p1217
sVexpertbelt
p1218
VExpert Belt
p1219
sVholdhands
p1220
VHold Hands
p1221
sVpikachustarter
p1222
VPikachu-Starter
p1223
sVcrosschop
p1224
VCross Chop
p1225
sVpsyshock
p1226
VPsyshock
p1227
sVicyrock
p1228
VIcy Rock
p1229
sVsoulheart
p1230
VSoul-Heart
p1231
sVtrevenant
p1232
VTrevenant
p1233
sVabsorbbulb
p1234
VAbsorb Bulb
p1235
sVbold
p1236
VBold
p1237
sVgunkshot
p1238
VGunk Shot
p1239
sVgorillatactics
p1240
VGorilla Tactics
p1241
sVmagearna
p1242
VMagearna
p1243
sVarceusfire
p1244
VArceus-Fire
p1245
sVgarchomp
p1246
VGarchomp
p1247
sVgeodude
p1248
VGeodude
p1249
sVlightscreen
p1250
VLight Screen
p1251
sVwhimsicott
p1252
VWhimsicott
p1253
sVlavaplume
p1254
VLava Plume
p1255
sVkeeneye
p1256
VKeen Eye
p1257
sVsimipour
p1258
VSimipour
p1259
sVtrumbeak
p1260
VTrumbeak
p1261
sVautotomize
p1262
VAutotomize
p1263
sVspikecannon
p1264
VSpike Cannon
p1265
sVnecturna
p1266
VNecturna
p1267
sVplus
p1268
VPlus
p1269
sVthroatspray
p1270
VThroat Spray
p1271
sVnidoqueen
p1272
VNidoqueen
p1273
sVelectricsurge
p1274
VElectric Surge
p1275
sVpikachulibre
p1276
VPikachu-Libre
p1277
sVthunderpunch
p1278
VThunder Punch
p1279
sVhornleech
p1280
VHorn Leech
p1281
sVbraixen
p1282
VBraixen
p1283
sVdarkvoid
p1284
VDark Void
p1285
sVsupersonicskystrike
p1286
VSupersonic Skystrike
p1287
sVhoundour
p1288
VHoundour
p1289
sVdualchop
p1290
VDual Chop
p1291
sVpinsirmega
p1292
VPinsir-Mega
p1293
sVfoulplay
p1294
VFoul Play
p1295
sVcentiskorchgmax
p1296
VCentiskorch-Gmax
p1297
sVgalewings
p1298
VGale Wings
p1299
sVbehemothbash
p1300
VBehemoth Bash
p1301
sVstormdrain
p1302
VStorm Drain
p1303
sVseadra
p1304
VSeadra
p1305
sVovergrow
p1306
VOvergrow
p1307
sVprismscale
p1308
VPrism Scale
p1309
sVbronzor
p1310
VBronzor
p1311
sVwrap
p1312
VWrap
p1313
sVrebble
p1314
VRebble
p1315
sVterrainextender
p1316
VTerrain Extender
p1317
sVcorsola
p1318
VCorsola
p1319
sVtransform
p1320
VTransform
p1321
sVklefki
p1322
VKlefki
p1323
sVrowapberry
p1324
VRowap Berry
p1325
sVquirky
p1326
VQuirky
p1327
sVmaxflutterby
p1328
VMax Flutterby
p1329
sVquickattack
p1330
VQuick Attack
p1331
sVsynthesis
p1332
VSynthesis
p1333
sVmultiscale
p1334
VMultiscale
p1335
sVgroundgem
p1336
VGround Gem
p1337
sVbutterfreegmax
p1338
VButterfree-Gmax
p1339
sVreshiram
p1340
VReshiram
p1341
sVrocksmash
p1342
VRock Smash
p1343
sVvolttackle
p1344
VVolt Tackle
p1345
sVghostgem
p1346
VGhost Gem
p1347
sVleafage
p1348
VLeafage
p1349
sVroughskin
p1350
VRough Skin
p1351
sVsafeguard
p1352
VSafeguard
p1353
sVsmoothrock
p1354
VSmooth Rock
p1355
sVcosmog
p1356
VCosmog
p1357
sVclangoroussoul
p1358
VClangorous Soul
p1359
sVdecorate
p1360
VDecorate
p1361
sVgigaimpact
p1362
VGiga Impact
p1363
sVbide
p1364
VBide
p1365
sVaurabreak
p1366
VAura Break
p1367
sVaurorus
p1368
VAurorus
p1369
sVcobalion
p1370
VCobalion
p1371
sVlightofruin
p1372
VLight of Ruin
p1373
sVstokedsparksurfer
p1374
VStoked Sparksurfer
p1375
sVholdback
p1376
VHold Back
p1377
sVchopleberry
p1378
VChople Berry
p1379
sVgmaxresonance
p1380
VG-Max Resonance
p1381
sVparentalbond
p1382
VParental Bond
p1383
sVlunaliumz
p1384
VLunalium Z
p1385
sVferaligatr
p1386
VFeraligatr
p1387
sVpokestarbrycenman
p1388
VPokestar Brycen-Man
p1389
sVicescales
p1390
VIce Scales
p1391
sVoddish
p1392
VOddish
p1393
sVleer
p1394
VLeer
p1395
sVmagby
p1396
VMagby
p1397
sVcloversweet
p1398
VClover Sweet
p1399
sVtypenull
p1400
VType: Null
p1401
sVswadloon
p1402
VSwadloon
p1403
sVvibrava
p1404
VVibrava
p1405
sVtr22
p1406
VTR22
p1407
sVsmoochum
p1408
VSmoochum
p1409
sVleek
p1410
VLeek
p1411
sVlansatberry
p1412
VLansat Berry
p1413
sVbutterfree
p1414
VButterfree
p1415
sVferroseed
p1416
VFerroseed
p1417
sVgoomy
p1418
VGoomy
p1419
sVamaura
p1420
VAmaura
p1421
sVarrokuda
p1422
VArrokuda
p1423
sVminiormeteor
p1424
VMinior-Meteor
p1425
sVclawfossil
p1426
VClaw Fossil
p1427
sVdischarge
p1428
VDischarge
p1429
sVkyogre
p1430
VKyogre
p1431
sVstrengthsap
p1432
VStrength Sap
p1433
sVpoisonpoint
p1434
VPoison Point
p1435
sVmelmetal
p1436
VMelmetal
p1437
sVhiddenpowerground
p1438
VHidden Power Ground
p1439
sVarceuspoison
p1440
VArceus-Poison
p1441
sVliechiberry
p1442
VLiechi Berry
p1443
sVlillipup
p1444
VLillipup
p1445
sVsilvallyflying
p1446
VSilvally-Flying
p1447
sVspectralthief
p1448
VSpectral Thief
p1449
sVflareboost
p1450
VFlare Boost
p1451
sVmareep
p1452
VMareep
p1453
sVoccaberry
p1454
VOcca Berry
p1455
sVironfist
p1456
VIron Fist
p1457
sVserious
p1458
VSerious
p1459
sVmegadrain
p1460
VMega Drain
p1461
sVsalacberry
p1462
VSalac Berry
p1463
sVpolkadotbow
p1464
VPolkadot Bow
p1465
sVsnubbull
p1466
VSnubbull
p1467
sVsandveil
p1468
VSand Veil
p1469
sVabsolite
p1470
VAbsolite
p1471
sVbonsly
p1472
VBonsly
p1473
sVnecrozma
p1474
VNecrozma
p1475
sVcelebi
p1476
VCelebi
p1477
sVavalanche
p1478
VAvalanche
p1479
sVshadowsneak
p1480
VShadow Sneak
p1481
sVsuctioncups
p1482
VSuction Cups
p1483
sVwaterbubble
p1484
VWater Bubble
p1485
sVsuperpower
p1486
VSuperpower
p1487
sVchinchou
p1488
VChinchou
p1489
sVanticipation
p1490
VAnticipation
p1491
sVweezing
p1492
VWeezing
p1493
sVdragonpulse
p1494
VDragon Pulse
p1495
sVelectroball
p1496
VElectro Ball
p1497
sVflash
p1498
VFlash
p1499
sVnetball
p1500
VNet Ball
p1501
sVcharge
p1502
VCharge
p1503
sVquash
p1504
VQuash
p1505
sVsnorlax
p1506
VSnorlax
p1507
sVblackholeeclipse
p1508
VBlack Hole Eclipse
p1509
sVmaxquake
p1510
VMax Quake
p1511
sVearlybird
p1512
VEarly Bird
p1513
sVmachamp
p1514
VMachamp
p1515
sVgmaxgoldrush
p1516
VG-Max Gold Rush
p1517
sVinteleon
p1518
VInteleon
p1519
sVkricketune
p1520
VKricketune
p1521
sVtailslap
p1522
VTail Slap
p1523
sVchilanberry
p1524
VChilan Berry
p1525
sVlopunny
p1526
VLopunny
p1527
sVtoxicplate
p1528
VToxic Plate
p1529
sVtoucannon
p1530
VToucannon
p1531
sVpikachualola
p1532
VPikachu-Alola
p1533
sVsplinteredstormshards
p1534
VSplintered Stormshards
p1535
sVskyuppercut
p1536
VSky Uppercut
p1537
sVmimejr
p1538
VMime Jr.
p1539
sVguzzlord
p1540
VGuzzlord
p1541
sVpoisonsting
p1542
VPoison Sting
p1543
sVdig
p1544
VDig
p1545
sVfocusblast
p1546
VFocus Blast
p1547
sVmesprit
p1548
VMesprit
p1549
sVmagnet
p1550
VMagnet
p1551
sVcoalossalgmax
p1552
VCoalossal-Gmax
p1553
sVbanettemega
p1554
VBanette-Mega
p1555
sVgmaxsnooze
p1556
VG-Max Snooze
p1557
sVround
p1558
VRound
p1559
sVunaware
p1560
VUnaware
p1561
sVduskball
p1562
VDusk Ball
p1563
sVfalseswipe
p1564
VFalse Swipe
p1565
sVtalonflame
p1566
VTalonflame
p1567
sVleafeon
p1568
VLeafeon
p1569
sVcharizardgmax
p1570
VCharizard-Gmax
p1571
sVveeveevolley
p1572
VVeevee Volley
p1573
sVminior
p1574
VMinior
p1575
sVzorua
p1576
VZorua
p1577
sVdreepy
p1578
VDreepy
p1579
sVfairymemory
p1580
VFairy Memory
p1581
sVaegislashblade
p1582
VAegislash-Blade
p1583
sVvitalthrow
p1584
VVital Throw
p1585
sVsubstitute
p1586
VSubstitute
p1587
sVgmaxvolcalith
p1588
VG-Max Volcalith
p1589
sVcurse
p1590
VCurse
p1591
sVfocusband
p1592
VFocus Band
p1593
sVmoltres
p1594
VMoltres
p1595
sVpasshoberry
p1596
VPassho Berry
p1597
sVtanglinghair
p1598
VTangling Hair
p1599
sVdragondance
p1600
VDragon Dance
p1601
sVaxew
p1602
VAxew
p1603
sVgolemalola
p1604
VGolem-Alola
p1605
sVkecleon
p1606
VKecleon
p1607
sVglameow
p1608
VGlameow
p1609
sVaeroblast
p1610
VAeroblast
p1611
sVwartortle
p1612
VWartortle
p1613
sVexplosion
p1614
VExplosion
p1615
sVmiracleeye
p1616
VMiracle Eye
p1617
sVpumpkaboo
p1618
VPumpkaboo
p1619
sVbreakingswipe
p1620
VBreaking Swipe
p1621
sVsimisear
p1622
VSimisear
p1623
sVhoopa
p1624
VHoopa
p1625
sVtropius
p1626
VTropius
p1627
sVgroundmemory
p1628
VGround Memory
p1629
sVmysticwater
p1630
VMystic Water
p1631
sVtr39
p1632
VTR39
p1633
sVtr38
p1634
VTR38
p1635
sVtr37
p1636
VTR37
p1637
sVtr36
p1638
VTR36
p1639
sVtr35
p1640
VTR35
p1641
sVtr34
p1642
VTR34
p1643
sVtr33
p1644
VTR33
p1645
sVtr32
p1646
VTR32
p1647
sVtr31
p1648
VTR31
p1649
sVtr30
p1650
VTR30
p1651
sVgastroacid
p1652
VGastro Acid
p1653
sVejectbutton
p1654
VEject Button
p1655
sVbeedrillmega
p1656
VBeedrill-Mega
p1657
sVexploud
p1658
VExploud
p1659
sVglitzyglow
p1660
VGlitzy Glow
p1661
sVaraquanidtotem
p1662
VAraquanid-Totem
p1663
sVdiveball
p1664
VDive Ball
p1665
sVsawk
p1666
VSawk
p1667
sVmaxhailstorm
p1668
VMax Hailstorm
p1669
sVsandygast
p1670
VSandygast
p1671
sVdragonite
p1672
VDragonite
p1673
sVbagon
p1674
VBagon
p1675
sVregenerator
p1676
VRegenerator
p1677
sViondeluge
p1678
VIon Deluge
p1679
sVlarvesta
p1680
VLarvesta
p1681
sVgmaxcannonade
p1682
VG-Max Cannonade
p1683
sVmudslap
p1684
VMud-Slap
p1685
sVhawlucha
p1686
VHawlucha
p1687
sVmagicroom
p1688
VMagic Room
p1689
sVappleacid
p1690
VApple Acid
p1691
sVampharosite
p1692
VAmpharosite
p1693
sVdrednaw
p1694
VDrednaw
p1695
sVdesolateland
p1696
VDesolate Land
p1697
sVpinsirite
p1698
VPinsirite
p1699
sVheavyslam
p1700
VHeavy Slam
p1701
sVpinmissile
p1702
VPin Missile
p1703
sVkyogreprimal
p1704
VKyogre-Primal
p1705
sVbanefulbunker
p1706
VBaneful Bunker
p1707
sVcaptivate
p1708
VCaptivate
p1709
sVflamecharge
p1710
VFlame Charge
p1711
sVswagger
p1712
VSwagger
p1713
sVxatu
p1714
VXatu
p1715
sVmarvelscale
p1716
VMarvel Scale
p1717
sVrockslide
p1718
VRock Slide
p1719
sVcaterpie
p1720
VCaterpie
p1721
sVhypno
p1722
VHypno
p1723
sVscratchet
p1724
VScratchet
p1725
sVbottlecap
p1726
VBottle Cap
p1727
sVelectrike
p1728
VElectrike
p1729
sVfletchling
p1730
VFletchling
p1731
sVgengargmax
p1732
VGengar-Gmax
p1733
sVseismictoss
p1734
VSeismic Toss
p1735
sVfly
p1736
VFly
p1737
sVuturn
p1738
VU-turn
p1739
sVflygon
p1740
VFlygon
p1741
sVsandstorm
p1742
VSandstorm
p1743
sVswampertite
p1744
VSwampertite
p1745
sVcorviknight
p1746
VCorviknight
p1747
sVswablu
p1748
VSwablu
p1749
sVcatastropika
p1750
VCatastropika
p1751
sVspikyshield
p1752
VSpiky Shield
p1753
sVscolipede
p1754
VScolipede
p1755
sVdwebble
p1756
VDwebble
p1757
sVpignite
p1758
VPignite
p1759
sVsolarpower
p1760
VSolar Power
p1761
sVvespiquen
p1762
VVespiquen
p1763
sVpalpitoad
p1764
VPalpitoad
p1765
sVchilldrive
p1766
VChill Drive
p1767
sVnormalize
p1768
VNormalize
p1769
sVpastelveil
p1770
VPastel Veil
p1771
sVcorsolagalar
p1772
VCorsola-Galar
p1773
sVsealeo
p1774
VSealeo
p1775
sVbanette
p1776
VBanette
p1777
sVtearfullook
p1778
VTearful Look
p1779
sVtailwind
p1780
VTailwind
p1781
sVdianciemega
p1782
VDiancie-Mega
p1783
sVwideguard
p1784
VWide Guard
p1785
sVeelektrik
p1786
VEelektrik
p1787
sVbehemothblade
p1788
VBehemoth Blade
p1789
sVlightthatburnsthesky
p1790
VLight That Burns the Sky
p1791
sVsandforce
p1792
VSand Force
p1793
sVdarkestlariat
p1794
VDarkest Lariat
p1795
sVpowerbelt
p1796
VPower Belt
p1797
sVelectricterrain
p1798
VElectric Terrain
p1799
sVoctillery
p1800
VOctillery
p1801
sVselfdestruct
p1802
VSelf-Destruct
p1803
sVstantler
p1804
VStantler
p1805
sVeeveestarter
p1806
VEevee-Starter
p1807
sVdive
p1808
VDive
p1809
sVmamoswine
p1810
VMamoswine
p1811
sVdarkmemory
p1812
VDark Memory
p1813
sVwiseglasses
p1814
VWise Glasses
p1815
sVmilkdrink
p1816
VMilk Drink
p1817
sVpowerwhip
p1818
VPower Whip
p1819
sVancientpower
p1820
VAncient Power
p1821
sVletssnuggleforever
p1822
VLet's Snuggle Forever
p1823
sVcryogonal
p1824
VCryogonal
p1825
sVsupersonic
p1826
VSupersonic
p1827
sVpsychicfangs
p1828
VPsychic Fangs
p1829
sVdelibird
p1830
VDelibird
p1831
sVsapsipper
p1832
VSap Sipper
p1833
sVmalamar
p1834
VMalamar
p1835
sVpurify
p1836
VPurify
p1837
sVshinx
p1838
VShinx
p1839
sVflamebody
p1840
VFlame Body
p1841
sVlitwick
p1842
VLitwick
p1843
sVslowbronite
p1844
VSlowbronite
p1845
sVriolu
p1846
VRiolu
p1847
sVlugia
p1848
VLugia
p1849
sVbulletseed
p1850
VBullet Seed
p1851
sVbubblebeam
p1852
VBubble Beam
p1853
sVmaxknuckle
p1854
VMax Knuckle
p1855
sVpoipole
p1856
VPoipole
p1857
sVtoxicthread
p1858
VToxic Thread
p1859
sVvenusaurgmax
p1860
VVenusaur-Gmax
p1861
sVarcanine
p1862
VArcanine
p1863
sVsneasel
p1864
VSneasel
p1865
sVgrassknot
p1866
VGrass Knot
p1867
sVauroraveil
p1868
VAurora Veil
p1869
sVklutz
p1870
VKlutz
p1871
sVpokestarspirit
p1872
VPokestar Spirit
p1873
sVbulldoze
p1874
VBulldoze
p1875
sVfocusenergy
p1876
VFocus Energy
p1877
sVscreencleaner
p1878
VScreen Cleaner
p1879
sVmimikyutotem
p1880
VMimikyu-Totem
p1881
sVprimordialsea
p1882
VPrimordial Sea
p1883
sVsnugglow
p1884
VSnugglow
p1885
sVkabuto
p1886
VKabuto
p1887
sVcoaching
p1888
VCoaching
p1889
sVscyther
p1890
VScyther
p1891
sVmail
p1892
VMail
p1893
sVfuryswipes
p1894
VFury Swipes
p1895
sVlonely
p1896
VLonely
p1897
sVfling
p1898
VFling
p1899
sVrattled
p1900
VRattled
p1901
sVinsomnia
p1902
VInsomnia
p1903
sVwatermemory
p1904
VWater Memory
p1905
sVfusionflare
p1906
VFusion Flare
p1907
sVsafariball
p1908
VSafari Ball
p1909
sVeffectspore
p1910
VEffect Spore
p1911
sVboomburst
p1912
VBoomburst
p1913
sVregice
p1914
VRegice
p1915
sVlinoone
p1916
VLinoone
p1917
sValtariamega
p1918
VAltaria-Mega
p1919
sVpowerconstruct
p1920
VPower Construct
p1921
sVsynchronize
p1922
VSynchronize
p1923
sVgust
p1924
VGust
p1925
sVsilvallyghost
p1926
VSilvally-Ghost
p1927
sVmantine
p1928
VMantine
p1929
sVglalie
p1930
VGlalie
p1931
sVpsyduck
p1932
VPsyduck
p1933
sVmentalherb
p1934
VMental Herb
p1935
sVswalot
p1936
VSwalot
p1937
sVglaceon
p1938
VGlaceon
p1939
sVporygonz
p1940
VPorygon-Z
p1941
sVcrackedpot
p1942
VCracked Pot
p1943
sVclobbopus
p1944
VClobbopus
p1945
sVstrugglebug
p1946
VStruggle Bug
p1947
sVwonderguard
p1948
VWonder Guard
p1949
sVcorkscrewcrash
p1950
VCorkscrew Crash
p1951
sVgmaxsweetness
p1952
VG-Max Sweetness
p1953
sVsinisterarrowraid
p1954
VSinister Arrow Raid
p1955
sVextremeevoboost
p1956
VExtreme Evoboost
p1957
sVprismarmor
p1958
VPrism Armor
p1959
sVsandslashalola
p1960
VSandslash-Alola
p1961
sVlycanroc
p1962
VLycanroc
p1963
sVshaymin
p1964
VShaymin
p1965
sVpidove
p1966
VPidove
p1967
sVrockiumz
p1968
VRockium Z
p1969
sVarctozolt
p1970
VArctozolt
p1971
sVskillswap
p1972
VSkill Swap
p1973
sVtorracat
p1974
VTorracat
p1975
sVrotomfan
p1976
VRotom-Fan
p1977
sVassurance
p1978
VAssurance
p1979
sVpoochyena
p1980
VPoochyena
p1981
sVpokestarblackdoor
p1982
VPokestar Black Door
p1983
sVsignalbeam
p1984
VSignal Beam
p1985
sVporygon2
p1986
VPorygon2
p1987
sVtoxicroak
p1988
VToxicroak
p1989
sVsteelwing
p1990
VSteel Wing
p1991
sVvisegrip
p1992
VVise Grip
p1993
sVunown
p1994
VUnown
p1995
sVbitterberry
p1996
VBitter Berry
p1997
sVpoliwhirl
p1998
VPoliwhirl
p1999
sVpetilil
p2000
VPetilil
p2001
sVwatmelberry
p2002
VWatmel Berry
p2003
sVstufful
p2004
VStufful
p2005
sVmorpeko
p2006
VMorpeko
p2007
sVeldegoss
p2008
VEldegoss
p2009
sVnidorino
p2010
VNidorino
p2011
sVmeloettapirouette
p2012
VMeloetta-Pirouette
p2013
sVnidorina
p2014
VNidorina
p2015
sVhypnosis
p2016
VHypnosis
p2017
sVdurinberry
p2018
VDurin Berry
p2019
sVdragonrage
p2020
VDragon Rage
p2021
sVjolteon
p2022
VJolteon
p2023
sVdefensecurl
p2024
VDefense Curl
p2025
sVnecturine
p2026
VNecturine
p2027
sVflowersweet
p2028
VFlower Sweet
p2029
sVflapple
p2030
VFlapple
p2031
sVliquidvoice
p2032
VLiquid Voice
p2033
sVchikorita
p2034
VChikorita
p2035
sVdarumakagalar
p2036
VDarumaka-Galar
p2037
sVrockyhelmet
p2038
VRocky Helmet
p2039
sVcrucibelle
p2040
VCrucibelle
p2041
sVtr08
p2042
VTR08
p2043
sVtr09
p2044
VTR09
p2045
sVjabocaberry
p2046
VJaboca Berry
p2047
sVtr02
p2048
VTR02
p2049
sVtr03
p2050
VTR03
p2051
sVteatime
p2052
VTeatime
p2053
sVtr01
p2054
VTR01
p2055
sVtr06
p2056
VTR06
p2057
sVtr07
p2058
VTR07
p2059
sVtr04
p2060
VTR04
p2061
sVtr05
p2062
VTR05
p2063
sViceshard
p2064
VIce Shard
p2065
sVgiratina
p2066
VGiratina
p2067
sVteravolt
p2068
VTeravolt
p2069
sVbite
p2070
VBite
p2071
sVrustedsword
p2072
VRusted Sword
p2073
sVduosion
p2074
VDuosion
p2075
sVaromatherapy
p2076
VAromatherapy
p2077
sVsleeptalk
p2078
VSleep Talk
p2079
sVsappyseed
p2080
VSappy Seed
p2081
sVconfuseray
p2082
VConfuse Ray
p2083
sVfilter
p2084
VFilter
p2085
sVgliscor
p2086
VGliscor
p2087
sVseedot
p2088
VSeedot
p2089
sVsnatch
p2090
VSnatch
p2091
sVslakoth
p2092
VSlakoth
p2093
sVbunnelby
p2094
VBunnelby
p2095
sVdrapion
p2096
VDrapion
p2097
sVpeck
p2098
VPeck
p2099
sVmelmetalgmax
p2100
VMelmetal-Gmax
p2101
sVchespin
p2102
VChespin
p2103
sVghostmemory
p2104
VGhost Memory
p2105
sVkartana
p2106
VKartana
p2107
sVmawilite
p2108
VMawilite
p2109
sVfloatyfall
p2110
VFloaty Fall
p2111
sVsalazzletotem
p2112
VSalazzle-Totem
p2113
sVgarbodor
p2114
VGarbodor
p2115
sVtrickortreat
p2116
VTrick-or-Treat
p2117
sVcursedbody
p2118
VCursed Body
p2119
sVcubone
p2120
VCubone
p2121
sVhiddenpowerrock
p2122
VHidden Power Rock
p2123
sVrazzberry
p2124
VRazz Berry
p2125
sVlick
p2126
VLick
p2127
sVlovesweet
p2128
VLove Sweet
p2129
sVpluffle
p2130
VPluffle
p2131
sVsilvallyrock
p2132
VSilvally-Rock
p2133
sViceberry
p2134
VIce Berry
p2135
sVsandstream
p2136
VSand Stream
p2137
sVledyba
p2138
VLedyba
p2139
sVaquatail
p2140
VAqua Tail
p2141
sVarceusdark
p2142
VArceus-Dark
p2143
sVkrilowatt
p2144
VKrilowatt
p2145
sVrecover
p2146
VRecover
p2147
sVflyingmemory
p2148
VFlying Memory
p2149
sVconversion
p2150
VConversion
p2151
sVelectrode
p2152
VElectrode
p2153
sVreckless
p2154
VReckless
p2155
sVcharjabug
p2156
VCharjabug
p2157
sVhiddenpowerdark
p2158
VHidden Power Dark
p2159
sVmetalsound
p2160
VMetal Sound
p2161
sVarghonaut
p2162
VArghonaut
p2163
sVbeedrill
p2164
VBeedrill
p2165
sVsurf
p2166
VSurf
p2167
sVgriseousorb
p2168
VGriseous Orb
p2169
sVneverendingnightmare
p2170
VNever-Ending Nightmare
p2171
sVmountaineer
p2172
VMountaineer
p2173
sVstunky
p2174
VStunky
p2175
sVtrace
p2176
VTrace
p2177
sVquagsire
p2178
VQuagsire
p2179
sVgeargrind
p2180
VGear Grind
p2181
sVdarkrai
p2182
VDarkrai
p2183
sVbarrage
p2184
VBarrage
p2185
sVbonemerang
p2186
VBonemerang
p2187
sVultranecroziumz
p2188
VUltranecrozium Z
p2189
sVstunfisk
p2190
VStunfisk
p2191
sVcorviknightgmax
p2192
VCorviknight-Gmax
p2193
sVadaptability
p2194
VAdaptability
p2195
sVespurr
p2196
VEspurr
p2197
sVleaftornado
p2198
VLeaf Tornado
p2199
sVhyperfang
p2200
VHyper Fang
p2201
sVdracoplate
p2202
VDraco Plate
p2203
sVhyperspacefury
p2204
VHyperspace Fury
p2205
sVelectirizer
p2206
VElectirizer
p2207
sVmollux
p2208
VMollux
p2209
sVmuddywater
p2210
VMuddy Water
p2211
sVmothim
p2212
VMothim
p2213
sVlifeorb
p2214
VLife Orb
p2215
sVdelphox
p2216
VDelphox
p2217
sVbrattler
p2218
VBrattler
p2219
sVhakamoo
p2220
VHakamo-o
p2221
sVtintedlens
p2222
VTinted Lens
p2223
sVgolurk
p2224
VGolurk
p2225
sVfigyberry
p2226
VFigy Berry
p2227
sVgoodra
p2228
VGoodra
p2229
sVdrumbeating
p2230
VDrum Beating
p2231
sVrevenankh
p2232
VRevenankh
p2233
sVvolbeat
p2234
VVolbeat
p2235
sVpulverizingpancake
p2236
VPulverizing Pancake
p2237
sVemergencyexit
p2238
VEmergency Exit
p2239
sVupgrade
p2240
VUp-Grade
p2241
sVburndrive
p2242
VBurn Drive
p2243
sVpartingshot
p2244
VParting Shot
p2245
sVpatrat
p2246
VPatrat
p2247
sVacupressure
p2248
VAcupressure
p2249
sVanalytic
p2250
VAnalytic
p2251
sVsilvallysteel
p2252
VSilvally-Steel
p2253
sVprobopass
p2254
VProbopass
p2255
sVoutrage
p2256
VOutrage
p2257
sVleavanny
p2258
VLeavanny
p2259
sVlycanrocmidnight
p2260
VLycanroc-Midnight
p2261
sVkinesis
p2262
VKinesis
p2263
sVweaknesspolicy
p2264
VWeakness Policy
p2265
sVstomp
p2266
VStomp
p2267
sVpersianalola
p2268
VPersian-Alola
p2269
sVmimikiumz
p2270
VMimikium Z
p2271
sVmaxstarfall
p2272
VMax Starfall
p2273
sVsmogecko
p2274
VSmogecko
p2275
sVboneclub
p2276
VBone Club
p2277
sVindeedeef
p2278
VIndeedee-F
p2279
sVtelekinesis
p2280
VTelekinesis
p2281
sVmoxie
p2282
VMoxie
p2283
sVcelebrate
p2284
VCelebrate
p2285
sVshuppet
p2286
VShuppet
p2287
sVparkball
p2288
VPark Ball
p2289
sVsandaconda
p2290
VSandaconda
p2291
sVzeraora
p2292
VZeraora
p2293
sVcupra
p2294
VCupra
p2295
sVlatiasite
p2296
VLatiasite
p2297
sVspewpa
p2298
VSpewpa
p2299
sVpokestarwhitedoor
p2300
VPokestar White Door
p2301
sVwonderskin
p2302
VWonder Skin
p2303
sVhiddenpowerfighting
p2304
VHidden Power Fighting
p2305
sVballfetch
p2306
VBall Fetch
p2307
sVimposter
p2308
VImposter
p2309
sVspore
p2310
VSpore
p2311
sVnecrozmaultra
p2312
VNecrozma-Ultra
p2313
sVkommoniumz
p2314
VKommonium Z
p2315
sVbaddreams
p2316
VBad Dreams
p2317
sVfirestone
p2318
VFire Stone
p2319
sVdetect
p2320
VDetect
p2321
sVsteadfast
p2322
VSteadfast
p2323
sVlimber
p2324
VLimber
p2325
sVbatonpass
p2326
VBaton Pass
p2327
sVbeakblast
p2328
VBeak Blast
p2329
sVforecast
p2330
VForecast
p2331
sVwhiscash
p2332
VWhiscash
p2333
sVsnowwarning
p2334
VSnow Warning
p2335
sVfalinks
p2336
VFalinks
p2337
sVjustified
p2338
VJustified
p2339
sVghostiumz
p2340
VGhostium Z
p2341
sVdamprock
p2342
VDamp Rock
p2343
sVhariyama
p2344
VHariyama
p2345
sVcrawdaunt
p2346
VCrawdaunt
p2347
sVpluck
p2348
VPluck
p2349
sVgmaxsandblast
p2350
VG-Max Sandblast
p2351
sVfuryattack
p2352
VFury Attack
p2353
sVroseincense
p2354
VRose Incense
p2355
sVspiderweb
p2356
VSpider Web
p2357
sVbrutalswing
p2358
VBrutal Swing
p2359
sVdestinyknot
p2360
VDestiny Knot
p2361
sVluminousmoss
p2362
VLuminous Moss
p2363
sVvivillonpokeball
p2364
VVivillon-Pokeball
p2365
sVsteelix
p2366
VSteelix
p2367
sVnestball
p2368
VNest Ball
p2369
sVberry
p2370
VBerry
p2371
sVcellbattery
p2372
VCell Battery
p2373
sVpheromosa
p2374
VPheromosa
p2375
sVwingattack
p2376
VWing Attack
p2377
sVnormalgem
p2378
VNormal Gem
p2379
sVstrangesteam
p2380
VStrange Steam
p2381
sVsmartstrike
p2382
VSmart Strike
p2383
sVhiddenpowersteel
p2384
VHidden Power Steel
p2385
sVtyranitarite
p2386
VTyranitarite
p2387
sVdodrio
p2388
VDodrio
p2389
sVtapubulu
p2390
VTapu Bulu
p2391
sVstancechange
p2392
VStance Change
p2393
sVzapdos
p2394
VZapdos
p2395
sVendeavor
p2396
VEndeavor
p2397
sViceburn
p2398
VIce Burn
p2399
sVrunaway
p2400
VRun Away
p2401
sVlandswrath
p2402
VLand's Wrath
p2403
sVmawilemega
p2404
VMawile-Mega
p2405
sVdewpider
p2406
VDewpider
p2407
sVlightmetal
p2408
VLight Metal
p2409
sVcopperajah
p2410
VCopperajah
p2411
sVburntberry
p2412
VBurnt Berry
p2413
sVstunspore
p2414
VStun Spore
p2415
sVxerneas
p2416
VXerneas
p2417
sVpoweruppunch
p2418
VPower-Up Punch
p2419
sVhighjumpkick
p2420
VHigh Jump Kick
p2421
sVpokestarsmeargle
p2422
VPokestar Smeargle
p2423
sVheatrock
p2424
VHeat Rock
p2425
sVlopunnymega
p2426
VLopunny-Mega
p2427
sVwhirlipede
p2428
VWhirlipede
p2429
sVtr15
p2430
VTR15
p2431
sVtr14
p2432
VTR14
p2433
sVtr17
p2434
VTR17
p2435
sVtr16
p2436
VTR16
p2437
sVtr11
p2438
VTR11
p2439
sVtr10
p2440
VTR10
p2441
sVtr13
p2442
VTR13
p2443
sVtr12
p2444
VTR12
p2445
sVomanyte
p2446
VOmanyte
p2447
sVunnerve
p2448
VUnnerve
p2449
sVstormthrow
p2450
VStorm Throw
p2451
sVhealblock
p2452
VHeal Block
p2453
sVtr18
p2454
VTR18
p2455
sVswanna
p2456
VSwanna
p2457
sVskiddo
p2458
VSkiddo
p2459
sVcareful
p2460
VCareful
p2461
sVmudshot
p2462
VMud Shot
p2463
sVclangoroussoulblaze
p2464
VClangorous Soulblaze
p2465
sVdryskin
p2466
VDry Skin
p2467
sVsteelworker
p2468
VSteelworker
p2469
sVdefeatist
p2470
VDefeatist
p2471
sVbugmemory
p2472
VBug Memory
p2473
sVtrick
p2474
VTrick
p2475
sVlandorus
p2476
VLandorus
p2477
sVgroudon
p2478
VGroudon
p2479
sVspotlight
p2480
VSpotlight
p2481
sVrhyhorn
p2482
VRhyhorn
p2483
sVquiet
p2484
VQuiet
p2485
sVpolteageistantique
p2486
VPolteageist-Antique
p2487
sVshadowclaw
p2488
VShadow Claw
p2489
sVsacredfire
p2490
VSacred Fire
p2491
sVmonferno
p2492
VMonferno
p2493
sVgourgeistlarge
p2494
VGourgeist-Large
p2495
sVcubchoo
p2496
VCubchoo
p2497
sVprimariumz
p2498
VPrimarium Z
p2499
sVhiddenpowerice
p2500
VHidden Power Ice
p2501
sVextremespeed
p2502
VExtreme Speed
p2503
sVtakedown
p2504
VTake Down
p2505
sVphantomforce
p2506
VPhantom Force
p2507
sVstrongjaw
p2508
VStrong Jaw
p2509
sVbrionne
p2510
VBrionne
p2511
sVkrookodile
p2512
VKrookodile
p2513
sVnuzzle
p2514
VNuzzle
p2515
sVthunderbolt
p2516
VThunderbolt
p2517
sVgenesectshock
p2518
VGenesect-Shock
p2519
sVmagnetbomb
p2520
VMagnet Bomb
p2521
sVassist
p2522
VAssist
p2523
sVgmaxstunshock
p2524
VG-Max Stun Shock
p2525
sVbulletproof
p2526
VBulletproof
p2527
sVsteelgem
p2528
VSteel Gem
p2529
sVpangoro
p2530
VPangoro
p2531
sVhypervoice
p2532
VHyper Voice
p2533
sVminimize
p2534
VMinimize
p2535
sVmaxsteelspike
p2536
VMax Steelspike
p2537
sVdoublehit
p2538
VDouble Hit
p2539
sVmedicham
p2540
VMedicham
p2541
sVmrmime
p2542
VMr. Mime
p2543
sVrockgem
p2544
VRock Gem
p2545
sVspark
p2546
VSpark
p2547
sVrunerigus
p2548
VRunerigus
p2549
sVdrampa
p2550
VDrampa
p2551
sVrazorwind
p2552
VRazor Wind
p2553
sVfurcoat
p2554
VFur Coat
p2555
sVhealingwish
p2556
VHealing Wish
p2557
sVquickguard
p2558
VQuick Guard
p2559
sVpowerband
p2560
VPower Band
p2561
sVwingull
p2562
VWingull
p2563
sVsnorliumz
p2564
VSnorlium Z
p2565
sVfurfrou
p2566
VFurfrou
p2567
sVchimchar
p2568
VChimchar
p2569
sVpoisonmemory
p2570
VPoison Memory
p2571
sVrazorclaw
p2572
VRazor Claw
p2573
sVdragonbreath
p2574
VDragon Breath
p2575
sVsearingsunrazesmash
p2576
VSearing Sunraze Smash
p2577
sVelgyem
p2578
VElgyem
p2579
sVduskull
p2580
VDuskull
p2581
sVcometpunch
p2582
VComet Punch
p2583
sVaerialace
p2584
VAerial Ace
p2585
sVparas
p2586
VParas
p2587
sVrayquazamega
p2588
VRayquaza-Mega
p2589
sVbudew
p2590
VBudew
p2591
sVflareblitz
p2592
VFlare Blitz
p2593
sVmaxrockfall
p2594
VMax Rockfall
p2595
sValcremiegmax
p2596
VAlcremie-Gmax
p2597
sVuxie
p2598
VUxie
p2599
sVfossilizeddrake
p2600
VFossilized Drake
p2601
sVxurkitree
p2602
VXurkitree
p2603
sVtrubbish
p2604
VTrubbish
p2605
sVmeteorbeam
p2606
VMeteor Beam
p2607
sVsnarl
p2608
VSnarl
p2609
sVmachpunch
p2610
VMach Punch
p2611
sVrillaboom
p2612
VRillaboom
p2613
sVyveltal
p2614
VYveltal
p2615
sVvolkraken
p2616
VVolkraken
p2617
sVsunkern
p2618
VSunkern
p2619
sVjunglehealing
p2620
VJungle Healing
p2621
sVbreakneckblitz
p2622
VBreakneck Blitz
p2623
sVcolossoil
p2624
VColossoil
p2625
sVdreamball
p2626
VDream Ball
p2627
sVsnore
p2628
VSnore
p2629
sVfloatstone
p2630
VFloat Stone
p2631
sVskiploom
p2632
VSkiploom
p2633
sVfishiousrend
p2634
VFishious Rend
p2635
sVzingzap
p2636
VZing Zap
p2637
sVvoltswitch
p2638
VVolt Switch
p2639
sVmeltan
p2640
VMeltan
p2641
sVarceusrock
p2642
VArceus-Rock
p2643
sVbrightpowder
p2644
VBright Powder
p2645
sVhypercutter
p2646
VHyper Cutter
p2647
sVvanillite
p2648
VVanillite
p2649
sVchoiceband
p2650
VChoice Band
p2651
sVobstruct
p2652
VObstruct
p2653
sVheartswap
p2654
VHeart Swap
p2655
sVsubzeroslammer
p2656
VSubzero Slammer
p2657
sVchesnaught
p2658
VChesnaught
p2659
sVpinapberry
p2660
VPinap Berry
p2661
sVminccino
p2662
VMinccino
p2663
sVbellsprout
p2664
VBellsprout
p2665
sVprinplup
p2666
VPrinplup
p2667
sVaudinomega
p2668
VAudino-Mega
p2669
sVmachoke
p2670
VMachoke
p2671
sVultraball
p2672
VUltra Ball
p2673
sVcrustle
p2674
VCrustle
p2675
sVpowergem
p2676
VPower Gem
p2677
sVechoedvoice
p2678
VEchoed Voice
p2679
sVbattlearmor
p2680
VBattle Armor
p2681
sVvolcanion
p2682
VVolcanion
p2683
sVcastformsnowy
p2684
VCastform-Snowy
p2685
sVraticatealolatotem
p2686
VRaticate-Alola-Totem
p2687
sVhustle
p2688
VHustle
p2689
sVthroh
p2690
VThroh
p2691
sVmultitype
p2692
VMultitype
p2693
sVinnerfocus
p2694
VInner Focus
p2695
sVbasculinbluestriped
p2696
VBasculin-Blue-Striped
p2697
sVdragonhammer
p2698
VDragon Hammer
p2699
sVhornattack
p2700
VHorn Attack
p2701
sVslowbrogalar
p2702
VSlowbro-Galar
p2703
sVcomfey
p2704
VComfey
p2705
sVzapcannon
p2706
VZap Cannon
p2707
sVroar
p2708
VRoar
p2709
sVlockon
p2710
VLock-On
p2711
sVtoxtricity
p2712
VToxtricity
p2713
sVfloette
p2714
VFloette
p2715
sVgengar
p2716
VGengar
p2717
sVshellsidearm
p2718
VShell Side Arm
p2719
sVaudino
p2720
VAudino
p2721
sVpokestarufo2
p2722
VPokestar UFO-2
p2723
sVcustapberry
p2724
VCustap Berry
p2725
sVsearingshot
p2726
VSearing Shot
p2727
sVmaxlightning
p2728
VMax Lightning
p2729
sVprankster
p2730
VPrankster
p2731
sVfennekin
p2732
VFennekin
p2733
sVshadowpunch
p2734
VShadow Punch
p2735
sVfocuspunch
p2736
VFocus Punch
p2737
sVcottondown
p2738
VCotton Down
p2739
sVdazzling
p2740
VDazzling
p2741
sVtoughclaws
p2742
VTough Claws
p2743
sVforewarn
p2744
VForewarn
p2745
sViciclespear
p2746
VIcicle Spear
p2747
sVpyroak
p2748
VPyroak
p2749
sVcorvisquire
p2750
VCorvisquire
p2751
sVgigalith
p2752
VGigalith
p2753
sVsacredsword
p2754
VSacred Sword
p2755
sVhex
p2756
VHex
p2757
sVkeldeo
p2758
VKeldeo
p2759
sVmarill
p2760
VMarill
p2761
sVprimarina
p2762
VPrimarina
p2763
sVsymbiosis
p2764
VSymbiosis
p2765
sVgalvanize
p2766
VGalvanize
p2767
sVwillowisp
p2768
VWill-O-Wisp
p2769
sVbubble
p2770
VBubble
p2771
sVfastball
p2772
VFast Ball
p2773
sVdragapult
p2774
VDragapult
p2775
sVglaciate
p2776
VGlaciate
p2777
sVnightshade
p2778
VNight Shade
p2779
sVsizzlyslide
p2780
VSizzly Slide
p2781
sVfrogadier
p2782
VFrogadier
p2783
sVporygon
p2784
VPorygon
p2785
sVgripclaw
p2786
VGrip Claw
p2787
sVvitalspirit
p2788
VVital Spirit
p2789
sVcrabominable
p2790
VCrabominable
p2791
sVrage
p2792
VRage
p2793
sVsandshrewalola
p2794
VSandshrew-Alola
p2795
sVvictorystar
p2796
VVictory Star
p2797
sVvinewhip
p2798
VVine Whip
p2799
sVstoneplate
p2800
VStone Plate
p2801
sVember
p2802
VEmber
p2803
sVmilcery
p2804
VMilcery
p2805
sVsplashplate
p2806
VSplash Plate
p2807
sVpowdersnow
p2808
VPowder Snow
p2809
sVtr61
p2810
VTR61
p2811
sVtr62
p2812
VTR62
p2813
sVtr63
p2814
VTR63
p2815
sVtr64
p2816
VTR64
p2817
sVgrepaberry
p2818
VGrepa Berry
p2819
sVtr66
p2820
VTR66
p2821
sVtr67
p2822
VTR67
p2823
sVtr68
p2824
VTR68
p2825
sVtr69
p2826
VTR69
p2827
sVmaxphantasm
p2828
VMax Phantasm
p2829
sVpyroball
p2830
VPyro Ball
p2831
sVsmokescreen
p2832
VSmokescreen
p2833
sVmoonblast
p2834
VMoonblast
p2835
sVcolburberry
p2836
VColbur Berry
p2837
sVsilvallydragon
p2838
VSilvally-Dragon
p2839
sVleafstorm
p2840
VLeaf Storm
p2841
sVhydrovortex
p2842
VHydro Vortex
p2843
sVcresselia
p2844
VCresselia
p2845
sVkinglergmax
p2846
VKingler-Gmax
p2847
sVsoulstealing7starstrike
p2848
VSoul-Stealing 7-Star Strike
p2849
sVbreloom
p2850
VBreloom
p2851
sVstalwart
p2852
VStalwart
p2853
sVimmunity
p2854
VImmunity
p2855
sVtangela
p2856
VTangela
p2857
sVcharizard
p2858
VCharizard
p2859
sVblipbug
p2860
VBlipbug
p2861
sVgolem
p2862
VGolem
p2863
sVtr19
p2864
VTR19
p2865
sVmirrorcoat
p2866
VMirror Coat
p2867
sVemboar
p2868
VEmboar
p2869
sVpowerspot
p2870
VPower Spot
p2871
sVdustox
p2872
VDustox
p2873
sVrootfossil
p2874
VRoot Fossil
p2875
sVmetagrossmega
p2876
VMetagross-Mega
p2877
sVzigzagoon
p2878
VZigzagoon
p2879
sVtackle
p2880
VTackle
p2881
sVgmaxreplenish
p2882
VG-Max Replenish
p2883
sVgmaxrapidflow
p2884
VG-Max Rapid Flow
p2885
sVpopplio
p2886
VPopplio
p2887
sVrotomwash
p2888
VRotom-Wash
p2889
sVlatios
p2890
VLatios
p2891
sVgrudge
p2892
VGrudge
p2893
sVcyndaquil
p2894
VCyndaquil
p2895
sVblueflare
p2896
VBlue Flare
p2897
sVdefog
p2898
VDefog
p2899
sVberserkgene
p2900
VBerserk Gene
p2901
sVskyattack
p2902
VSky Attack
p2903
sVcramorantgorging
p2904
VCramorant-Gorging
p2905
sVmoonlight
p2906
VMoonlight
p2907
sVmimic
p2908
VMimic
p2909
sVstockpile
p2910
VStockpile
p2911
sVfrosmoth
p2912
VFrosmoth
p2913
sVoddincense
p2914
VOdd Incense
p2915
sVmeloetta
p2916
VMeloetta
p2917
sVgardevoirmega
p2918
VGardevoir-Mega
p2919
sVlairon
p2920
VLairon
p2921
sVeerieimpulse
p2922
VEerie Impulse
p2923
sVscrappy
p2924
VScrappy
p2925
sVtogetic
p2926
VTogetic
p2927
sVfirepunch
p2928
VFire Punch
p2929
sVunfezant
p2930
VUnfezant
p2931
sVmicleberry
p2932
VMicle Berry
p2933
sVjolly
p2934
VJolly
p2935
sVsalandit
p2936
VSalandit
p2937
sVbewear
p2938
VBewear
p2939
sVgmaxfinale
p2940
VG-Max Finale
p2941
sVlightningrod
p2942
VLightning Rod
p2943
sVgigadrain
p2944
VGiga Drain
p2945
sVsilverpowder
p2946
VSilverPowder
p2947
sVclamperl
p2948
VClamperl
p2949
sVorbeetlegmax
p2950
VOrbeetle-Gmax
p2951
sVvanillish
p2952
VVanillish
p2953
sVvenomdrench
p2954
VVenom Drench
p2955
sVbayleef
p2956
VBayleef
p2957
sVhondewberry
p2958
VHondew Berry
p2959
sVbloomdoom
p2960
VBloom Doom
p2961
sVfossilizedfish
p2962
VFossilized Fish
p2963
sVnoretreat
p2964
VNo Retreat
p2965
sVplasmafists
p2966
VPlasma Fists
p2967
sVtyranitarmega
p2968
VTyranitar-Mega
p2969
sVicepunch
p2970
VIce Punch
p2971
sVgalvantula
p2972
VGalvantula
p2973
sVshinystone
p2974
VShiny Stone
p2975
sVcombusken
p2976
VCombusken
p2977
sVcloudnine
p2978
VCloud Nine
p2979
sVmienshao
p2980
VMienshao
p2981
sVkeeberry
p2982
VKee Berry
p2983
sVsteameruption
p2984
VSteam Eruption
p2985
sVmild
p2986
VMild
p2987
sVscrafty
p2988
VScrafty
p2989
sVnoability
p2990
VNo Ability
p2991
sVsecretpower
p2992
VSecret Power
p2993
sVshadowtag
p2994
VShadow Tag
p2995
sVpidgeotmega
p2996
VPidgeot-Mega
p2997
sVmagearnaoriginal
p2998
VMagearna-Original
p2999
sVdoublekick
p3000
VDouble Kick
p3001
sVsandtomb
p3002
VSand Tomb
p3003
sVflorges
p3004
VFlorges
p3005
sVgourgeistsuper
p3006
VGourgeist-Super
p3007
sVironbarbs
p3008
VIron Barbs
p3009
sValtaria
p3010
VAltaria
p3011
sVcrushgrip
p3012
VCrush Grip
p3013
sVmagikarp
p3014
VMagikarp
p3015
sVmeowthgmax
p3016
VMeowth-Gmax
p3017
sVseedbomb
p3018
VSeed Bomb
p3019
sVmeganium
p3020
VMeganium
p3021
sVchipaway
p3022
VChip Away
p3023
sVmetalclaw
p3024
VMetal Claw
p3025
sVfeatherdance
p3026
VFeather Dance
p3027
sVshockwave
p3028
VShock Wave
p3029
sVironplate
p3030
VIron Plate
p3031
sVgreatball
p3032
VGreat Ball
p3033
sVfellstinger
p3034
VFell Stinger
p3035
sVwateriumz
p3036
VWaterium Z
p3037
sVfightiniumz
p3038
VFightinium Z
p3039
sVheartstamp
p3040
VHeart Stamp
p3041
sVtoxel
p3042
VToxel
p3043
sVboldore
p3044
VBoldore
p3045
sVcombee
p3046
VCombee
p3047
sVdragonfang
p3048
VDragon Fang
p3049
sVgastly
p3050
VGastly
p3051
sVrevenge
p3052
VRevenge
p3053
sVclearsmog
p3054
VClear Smog
p3055
sVgmaxhydrosnipe
p3056
VG-Max Hydrosnipe
p3057
sVvenusaurmega
p3058
VVenusaur-Mega
p3059
sVinfernape
p3060
VInfernape
p3061
sVdecidiumz
p3062
VDecidium Z
p3063
sVaromatisse
p3064
VAromatisse
p3065
sVbattlebond
p3066
VBattle Bond
p3067
sVkyuremwhite
p3068
VKyurem-White
p3069
sVpokestarhumanoid
p3070
VPokestar Humanoid
p3071
sVacidspray
p3072
VAcid Spray
p3073
sViciumz
p3074
VIcium Z
p3075
sVpowerbracer
p3076
VPower Bracer
p3077
sVwringout
p3078
VWring Out
p3079
sVperishbody
p3080
VPerish Body
p3081
sVstarly
p3082
VStarly
p3083
sVsweetveil
p3084
VSweet Veil
p3085
sVgolett
p3086
VGolett
p3087
sVinciniumz
p3088
VIncinium Z
p3089
sVgyaradosmega
p3090
VGyarados-Mega
p3091
sVgallade
p3092
VGallade
p3093
sVoranguru
p3094
VOranguru
p3095
sVledian
p3096
VLedian
p3097
sVcutiefly
p3098
VCutiefly
p3099
sVscraggy
p3100
VScraggy
p3101
sVelectricseed
p3102
VElectric Seed
p3103
sVluvdisc
p3104
VLuvdisc
p3105
sVhelixfossil
p3106
VHelix Fossil
p3107
sVsavagespinout
p3108
VSavage Spin-Out
p3109
sVsplash
p3110
VSplash
p3111
sVbodypress
p3112
VBody Press
p3113
sVcawdet
p3114
VCawdet
p3115
sVanorith
p3116
VAnorith
p3117
sVfairiumz
p3118
VFairium Z
p3119
sVdizzypunch
p3120
VDizzy Punch
p3121
sVflyingpress
p3122
VFlying Press
p3123
sVbounsweet
p3124
VBounsweet
p3125
sVpumpkaboosuper
p3126
VPumpkaboo-Super
p3127
sVhorsea
p3128
VHorsea
p3129
sVstick
p3130
VStick
p3131
sVrazorfang
p3132
VRazor Fang
p3133
sVwatergem
p3134
VWater Gem
p3135
sVturboblaze
p3136
VTurboblaze
p3137
sVintrepidsword
p3138
VIntrepid Sword
p3139
sVunburden
p3140
VUnburden
p3141
sVnaturalgift
p3142
VNatural Gift
p3143
sVenergypowder
p3144
VEnergy Powder
p3145
sVchartiberry
p3146
VCharti Berry
p3147
sVlumberry
p3148
VLum Berry
p3149
sVthwackey
p3150
VThwackey
p3151
sVvoltorb
p3152
VVoltorb
p3153
sVappletun
p3154
VAppletun
p3155
sVshadowshield
p3156
VShadow Shield
p3157
sVskyplate
p3158
VSky Plate
p3159
sVsableye
p3160
VSableye
p3161
sVseviper
p3162
VSeviper
p3163
sVboltbeak
p3164
VBolt Beak
p3165
sVaurumoth
p3166
VAurumoth
p3167
sVflowerveil
p3168
VFlower Veil
p3169
sVstaryu
p3170
VStaryu
p3171
sVwishiwashi
p3172
VWishiwashi
p3173
sVshelltrap
p3174
VShell Trap
p3175
sVwikiberry
p3176
VWiki Berry
p3177
sVwobbuffet
p3178
VWobbuffet
p3179
sVmorgrem
p3180
VMorgrem
p3181
sVteleport
p3182
VTeleport
p3183
sVninetalesalola
p3184
VNinetales-Alola
p3185
sVshelmet
p3186
VShelmet
p3187
sVkommoototem
p3188
VKommo-o-Totem
p3189
sVglalitite
p3190
VGlalitite
p3191
sVflyinggem
p3192
VFlying Gem
p3193
sVbulkup
p3194
VBulk Up
p3195
sVtr73
p3196
VTR73
p3197
sVtr72
p3198
VTR72
p3199
sVtr71
p3200
VTR71
p3201
sVtr70
p3202
VTR70
p3203
sVtr77
p3204
VTR77
p3205
sVtr76
p3206
VTR76
p3207
sVtr75
p3208
VTR75
p3209
sVtr74
p3210
VTR74
p3211
sVelectricgem
p3212
VElectric Gem
p3213
sVtr79
p3214
VTR79
p3215
sVtr78
p3216
VTR78
p3217
sVshuckle
p3218
VShuckle
p3219
sVjynx
p3220
VJynx
p3221
sVreflect
p3222
VReflect
p3223
sVdisable
p3224
VDisable
p3225
sVliquidooze
p3226
VLiquid Ooze
p3227
sVmistyterrain
p3228
VMisty Terrain
p3229
sVfairygem
p3230
VFairy Gem
p3231
sVmedichammega
p3232
VMedicham-Mega
p3233
sVtwistedspoon
p3234
VTwisted Spoon
p3235
sVgmaxcuddle
p3236
VG-Max Cuddle
p3237
sVmaxmindstorm
p3238
VMax Mindstorm
p3239
sVpineco
p3240
VPineco
p3241
sVcomatose
p3242
VComatose
p3243
sVretaliate
p3244
VRetaliate
p3245
sVgoldbottlecap
p3246
VGold Bottle Cap
p3247
sVoctolock
p3248
VOctolock
p3249
sVphantump
p3250
VPhantump
p3251
sVgolisopod
p3252
VGolisopod
p3253
sVdrakloak
p3254
VDrakloak
p3255
sVqueenlymajesty
p3256
VQueenly Majesty
p3257
sVcorphish
p3258
VCorphish
p3259
sVsteelbeam
p3260
VSteel Beam
p3261
sVangerpoint
p3262
VAnger Point
p3263
sVdarmanitangalar
p3264
VDarmanitan-Galar
p3265
sVgmaxvinelash
p3266
VG-Max Vine Lash
p3267
sVfissure
p3268
VFissure
p3269
sVvolcarona
p3270
VVolcarona
p3271
sVblackglasses
p3272
VBlack Glasses
p3273
sVplayrough
p3274
VPlay Rough
p3275
sVhealorder
p3276
VHeal Order
p3277
sVjigglypuff
p3278
VJigglypuff
p3279
sVsandslash
p3280
VSandslash
p3281
sVastonish
p3282
VAstonish
p3283
sVenergyball
p3284
VEnergy Ball
p3285
sVaggron
p3286
VAggron
p3287
sVfossilizedbird
p3288
VFossilized Bird
p3289
sVlampent
p3290
VLampent
p3291
sVfistplate
p3292
VFist Plate
p3293
sVreturn
p3294
VReturn
p3295
sVmanectricmega
p3296
VManectric-Mega
p3297
sVsnowball
p3298
VSnowball
p3299
sVsolarbeam
p3300
VSolar Beam
p3301
sVcharizardmegax
p3302
VCharizard-Mega-X
p3303
sVcharizardmegay
p3304
VCharizard-Mega-Y
p3305
sVclefable
p3306
VClefable
p3307
sVpokestarmt
p3308
VPokestar MT
p3309
sVskuntank
p3310
VSkuntank
p3311
sVprimeape
p3312
VPrimeape
p3313
sVgabite
p3314
VGabite
p3315
sVgrubbin
p3316
VGrubbin
p3317
sVmanaphy
p3318
VManaphy
p3319
sVstuffcheeks
p3320
VStuff Cheeks
p3321
sVmissingno
p3322
VMissingNo.
p3323
sVhooh
p3324
VHo-Oh
p3325
sVrefresh
p3326
VRefresh
p3327
sVcramorantgulping
p3328
VCramorant-Gulping
p3329
sVspoink
p3330
VSpoink
p3331
sVlovelykiss
p3332
VLovely Kiss
p3333
sVmeanlook
p3334
VMean Look
p3335
sVgumshoos
p3336
VGumshoos
p3337
sVclamp
p3338
VClamp
p3339
sVtopsyturvy
p3340
VTopsy-Turvy
p3341
sVquickfeet
p3342
VQuick Feet
p3343
sVweezinggalar
p3344
VWeezing-Galar
p3345
sVwatershuriken
p3346
VWater Shuriken
p3347
sVtsareena
p3348
VTsareena
p3349
sVmaxstrike
p3350
VMax Strike
p3351
sVmultiattack
p3352
VMulti-Attack
p3353
sVmagnezone
p3354
VMagnezone
p3355
sVtrickroom
p3356
VTrick Room
p3357
sVstoredpower
p3358
VStored Power
p3359
sVwatercompaction
p3360
VWater Compaction
p3361
sVhiddenpowerpsychic
p3362
VHidden Power Psychic
p3363
sVfidgit
p3364
VFidgit
p3365
sVsilvallyelectric
p3366
VSilvally-Electric
p3367
sVelectroweb
p3368
VElectroweb
p3369
sVkangaskhanmega
p3370
VKangaskhan-Mega
p3371
sVcopperajahgmax
p3372
VCopperajah-Gmax
p3373
sVsalamence
p3374
VSalamence
p3375
sVarceuswater
p3376
VArceus-Water
p3377
sVarceusice
p3378
VArceus-Ice
p3379
sVsuperfang
p3380
VSuper Fang
p3381
sVsilvallyground
p3382
VSilvally-Ground
p3383
sVchoicescarf
p3384
VChoice Scarf
p3385
sVroggenrola
p3386
VRoggenrola
p3387
sVflashcannon
p3388
VFlash Cannon
p3389
sVblaziken
p3390
VBlaziken
p3391
sVironhead
p3392
VIron Head
p3393
sVsentret
p3394
VSentret
p3395
sVpichuspikyeared
p3396
VPichu-Spiky-eared
p3397
sVtyrogue
p3398
VTyrogue
p3399
sVdarkaura
p3400
VDark Aura
p3401
sVcleffa
p3402
VCleffa
p3403
sVguardsplit
p3404
VGuard Split
p3405
sVwaterabsorb
p3406
VWater Absorb
p3407
sVpunkrock
p3408
VPunk Rock
p3409
sVtoxicboost
p3410
VToxic Boost
p3411
sVninetales
p3412
VNinetales
p3413
sVnidoranf
p3414
VNidoran-F
p3415
sVcottonspore
p3416
VCotton Spore
p3417
sVnidoranm
p3418
VNidoran-M
p3419
sVparaboliccharge
p3420
VParabolic Charge
p3421
sVscopelens
p3422
VScope Lens
p3423
sVhydreigon
p3424
VHydreigon
p3425
sVrockpolish
p3426
VRock Polish
p3427
sVmightyena
p3428
VMightyena
p3429
sVabomasnowmega
p3430
VAbomasnow-Mega
p3431
sVsolganiumz
p3432
VSolganium Z
p3433
sVbrave
p3434
VBrave
p3435
sVcarkol
p3436
VCarkol
p3437
sVmist
p3438
VMist
p3439
sVapicotberry
p3440
VApicot Berry
p3441
sVpetaldance
p3442
VPetal Dance
p3443
sVmeowstic
p3444
VMeowstic
p3445
sVboltstrike
p3446
VBolt Strike
p3447
sVastrolotl
p3448
VAstrolotl
p3449
sVraikou
p3450
VRaikou
p3451
sVswarm
p3452
VSwarm
p3453
sVterrainpulse
p3454
VTerrain Pulse
p3455
sVbibarel
p3456
VBibarel
p3457
sVpsncureberry
p3458
VPSN Cure Berry
p3459
sVdazzlinggleam
p3460
VDazzling Gleam
p3461
sVlandorustherian
p3462
VLandorus-Therian
p3463
sVshedinja
p3464
VShedinja
p3465
sVpikashuniumz
p3466
VPikashunium Z
p3467
sVpsybeam
p3468
VPsybeam
p3469
sVsuckerpunch
p3470
VSucker Punch
p3471
sVoverdrive
p3472
VOverdrive
p3473
sVdragonascent
p3474
VDragon Ascent
p3475
sVfreezeshock
p3476
VFreeze Shock
p3477
sVpsywave
p3478
VPsywave
p3479
sVinferno
p3480
VInferno
p3481
sVsurgingstrikes
p3482
VSurging Strikes
p3483
sVwhiteherb
p3484
VWhite Herb
p3485
sVringtarget
p3486
VRing Target
p3487
sVvenipede
p3488
VVenipede
p3489
sVdarkpulse
p3490
VDark Pulse
p3491
sVyamask
p3492
VYamask
p3493
sVpokestarufopropu2
p3494
VPokestar UFO-PropU2
p3495
sVstall
p3496
VStall
p3497
sVsharpedonite
p3498
VSharpedonite
p3499
sVmerciless
p3500
VMerciless
p3501
sVdoubleedge
p3502
VDouble-Edge
p3503
sVremoraid
p3504
VRemoraid
p3505
sVclefairy
p3506
VClefairy
p3507
sVklink
p3508
VKlink
p3509
sVclearbody
p3510
VClear Body
p3511
sVfirespin
p3512
VFire Spin
p3513
sVgenesectchill
p3514
VGenesect-Chill
p3515
sVsuicune
p3516
VSuicune
p3517
sVthundurustherian
p3518
VThundurus-Therian
p3519
sVpamtreberry
p3520
VPamtre Berry
p3521
sVmegahorn
p3522
VMegahorn
p3523
sVcontrary
p3524
VContrary
p3525
sVslowbromega
p3526
VSlowbro-Mega
p3527
sVzenmode
p3528
VZen Mode
p3529
sVsunflora
p3530
VSunflora
p3531
sVgmaxdrumsolo
p3532
VG-Max Drum Solo
p3533
sVsnorlaxgmax
p3534
VSnorlax-Gmax
p3535
sVgourgeist
p3536
VGourgeist
p3537
sVbarbaracle
p3538
VBarbaracle
p3539
sVairballoon
p3540
VAir Balloon
p3541
sVswirlix
p3542
VSwirlix
p3543
sVcoribalis
p3544
VCoribalis
p3545
sVlitleo
p3546
VLitleo
p3547
sVcamouflage
p3548
VCamouflage
p3549
sVfrillish
p3550
VFrillish
p3551
sVroselia
p3552
VRoselia
p3553
sVkangaskhan
p3554
VKangaskhan
p3555
sVregirock
p3556
VRegirock
p3557
sVheavydutyboots
p3558
VHeavy-Duty Boots
p3559
sVmagicpowder
p3560
VMagic Powder
p3561
sVswitcheroo
p3562
VSwitcheroo
p3563
sValakazammega
p3564
VAlakazam-Mega
p3565
sVmasterball
p3566
VMaster Ball
p3567
sVeruption
p3568
VEruption
p3569
sVyawn
p3570
VYawn
p3571
sVcharm
p3572
VCharm
p3573
sVdiglett
p3574
VDiglett
p3575
sVbeldum
p3576
VBeldum
p3577
sVhabanberry
p3578
VHaban Berry
p3579
sVcrosspoison
p3580
VCross Poison
p3581
sVcarvanha
p3582
VCarvanha
p3583
sVxerneasneutral
p3584
VXerneas-Neutral
p3585
sVrefrigerate
p3586
VRefrigerate
p3587
sVlowsweep
p3588
VLow Sweep
p3589
sVmaxflare
p3590
VMax Flare
p3591
sVcovet
p3592
VCovet
p3593
sVlax
p3594
VLax
p3595
sVlunala
p3596
VLunala
p3597
sVmarshadiumz
p3598
VMarshadium Z
p3599
sVgenesectdouse
p3600
VGenesect-Douse
p3601
sVkaratechop
p3602
VKarate Chop
p3603
sVworryseed
p3604
VWorry Seed
p3605
sVazumarill
p3606
VAzumarill
p3607
sVmetalburst
p3608
VMetal Burst
p3609
sVherdier
p3610
VHerdier
p3611
sVtr48
p3612
VTR48
p3613
sVtr49
p3614
VTR49
p3615
sVtr46
p3616
VTR46
p3617
sVtr47
p3618
VTR47
p3619
sVtr44
p3620
VTR44
p3621
sVtr45
p3622
VTR45
p3623
sVnanabberry
p3624
VNanab Berry
p3625
sVtr43
p3626
VTR43
p3627
sVtr40
p3628
VTR40
p3629
sVtr41
p3630
VTR41
p3631
sVzoomlens
p3632
VZoom Lens
p3633
sVblackbelt
p3634
VBlack Belt
p3635
sVhammerarm
p3636
VHammer Arm
p3637
sVobstagoon
p3638
VObstagoon
p3639
sVskwovet
p3640
VSkwovet
p3641
sVmagmaarmor
p3642
VMagma Armor
p3643
sVcrabrawler
p3644
VCrabrawler
p3645
sVpayday
p3646
VPay Day
p3647
sVgooey
p3648
VGooey
p3649
sVoblivionwing
p3650
VOblivion Wing
p3651
sVtyrantrum
p3652
VTyrantrum
p3653
sVhealpulse
p3654
VHeal Pulse
p3655
sVheadcharge
p3656
VHead Charge
p3657
sViceface
p3658
VIce Face
p3659
sVpawniard
p3660
VPawniard
p3661
sVnickit
p3662
VNickit
p3663
sVpoisontail
p3664
VPoison Tail
p3665
sVrest
p3666
VRest
p3667
sVdocile
p3668
VDocile
p3669
sVfireblast
p3670
VFire Blast
p3671
sVmaliciousmoonsault
p3672
VMalicious Moonsault
p3673
sVshroomish
p3674
VShroomish
p3675
sVappletungmax
p3676
VAppletun-Gmax
p3677
sVwhismur
p3678
VWhismur
p3679
sVspikes
p3680
VSpikes
p3681
sVshadowstrike
p3682
VShadow Strike
p3683
sVheatcrash
p3684
VHeat Crash
p3685
sVskorupi
p3686
VSkorupi
p3687
sVgengarite
p3688
VGengarite
p3689
sVpokestartransport
p3690
VPokestar Transport
p3691
sVzarude
p3692
VZarude
p3693
sVpinkbow
p3694
VPink Bow
p3695
sVblitzle
p3696
VBlitzle
p3697
sVsparklyswirl
p3698
VSparkly Swirl
p3699
sVspeedswap
p3700
VSpeed Swap
p3701
sVlustrousorb
p3702
VLustrous Orb
p3703
sVflarelm
p3704
VFlarelm
p3705
sVfeint
p3706
VFeint
p3707
sVeternatus
p3708
VEternatus
p3709
sVtamatoberry
p3710
VTamato Berry
p3711
sVblazikenite
p3712
VBlazikenite
p3713
sVfarfetchd
p3714
VFarfetch\u2019d
p3715
sVinkay
p3716
VInkay
p3717
sVnecrozmaduskmane
p3718
VNecrozma-Dusk-Mane
p3719
sVdrednawgmax
p3720
VDrednaw-Gmax
p3721
sVpickup
p3722
VPickup
p3723
sVgravapple
p3724
VGrav Apple
p3725
sVtangaberry
p3726
VTanga Berry
p3727
sVkarrablast
p3728
VKarrablast
p3729
sVberserk
p3730
VBerserk
p3731
sVmarowak
p3732
VMarowak
p3733
sVmachobrace
p3734
VMacho Brace
p3735
sVsilvallywater
p3736
VSilvally-Water
p3737
sVelekid
p3738
VElekid
p3739
sVmagmortar
p3740
VMagmortar
p3741
sVchansey
p3742
VChansey
p3743
sVroaroftime
p3744
VRoar of Time
p3745
sVwildcharge
p3746
VWild Charge
p3747
sVgraveleralola
p3748
VGraveler-Alola
p3749
sVhoundoommega
p3750
VHoundoom-Mega
p3751
sVclaydol
p3752
VClaydol
p3753
sVrelicanth
p3754
VRelicanth
p3755
sVblunderpolicy
p3756
VBlunder Policy
p3757
sVtorchic
p3758
VTorchic
p3759
sVlapras
p3760
VLapras
p3761
sVmankey
p3762
VMankey
p3763
sVprotector
p3764
VProtector
p3765
sVraticatealola
p3766
VRaticate-Alola
p3767
sVshayminsky
p3768
VShaymin-Sky
p3769
sVsludgebomb
p3770
VSludge Bomb
p3771
sVstunfiskgalar
p3772
VStunfisk-Galar
p3773
sVsandile
p3774
VSandile
p3775
sVtyphlosion
p3776
VTyphlosion
p3777
sVbattery
p3778
VBattery
p3779
sVdrillpeck
p3780
VDrill Peck
p3781
sVpincurchin
p3782
VPincurchin
p3783
sVicebody
p3784
VIce Body
p3785
sVdancer
p3786
VDancer
p3787
sVjawlock
p3788
VJaw Lock
p3789
sVfearow
p3790
VFearow
p3791
sVxscissor
p3792
VX-Scissor
p3793
sVbellossom
p3794
VBellossom
p3795
sVquiverdance
p3796
VQuiver Dance
p3797
sVblastoisinite
p3798
VBlastoisinite
p3799
sVmegapunch
p3800
VMega Punch
p3801
sVchippedpot
p3802
VChipped Pot
p3803
sVdamp
p3804
VDamp
p3805
sVskitty
p3806
VSkitty
p3807
sVmienfoo
p3808
VMienfoo
p3809
sVearthquake
p3810
VEarthquake
p3811
sVpollenpuff
p3812
VPollen Puff
p3813
sVliepard
p3814
VLiepard
p3815
sVamnesia
p3816
VAmnesia
p3817
sVdestinybond
p3818
VDestiny Bond
p3819
sVcastform
p3820
VCastform
p3821
sVmeowthalola
p3822
VMeowth-Alola
p3823
sVdruddigon
p3824
VDruddigon
p3825
sVtaillow
p3826
VTaillow
p3827
sVbashful
p3828
VBashful
p3829
sVdragontail
p3830
VDragon Tail
p3831
sVkyurem
p3832
VKyurem
p3833
sVswellow
p3834
VSwellow
p3835
sVstringshot
p3836
VString Shot
p3837
sValomomola
p3838
VAlomomola
p3839
sVwatergun
p3840
VWater Gun
p3841
sVilluminate
p3842
VIlluminate
p3843
sVvcreate
p3844
VV-create
p3845
sVnomelberry
p3846
VNomel Berry
p3847
sVdrainingkiss
p3848
VDraining Kiss
p3849
sVsnaptrap
p3850
VSnap Trap
p3851
sVbasculin
p3852
VBasculin
p3853
sVgrassiumz
p3854
VGrassium Z
p3855
sVescavalier
p3856
VEscavalier
p3857
sVpsychoshift
p3858
VPsycho Shift
p3859
sVbisharp
p3860
VBisharp
p3861
sVhoundoom
p3862
VHoundoom
p3863
sVgulpin
p3864
VGulpin
p3865
sVpancham
p3866
VPancham
p3867
sVmantyke
p3868
VMantyke
p3869
sVpound
p3870
VPound
p3871
sVmedichamite
p3872
VMedichamite
p3873
sVrotommow
p3874
VRotom-Mow
p3875
sVdefendorder
p3876
VDefend Order
p3877
sVsurskit
p3878
VSurskit
p3879
sVmegalauncher
p3880
VMega Launcher
p3881
sVicebeam
p3882
VIce Beam
p3883
sVfacade
p3884
VFacade
p3885
sVzubat
p3886
VZubat
p3887
sVmagikarpsrevenge
p3888
VMagikarp's Revenge
p3889
sVingrain
p3890
VIngrain
p3891
sVcottonee
p3892
VCottonee
p3893
sVpikachuphd
p3894
VPikachu-PhD
p3895
sVpowerlens
p3896
VPower Lens
p3897
sVzweilous
p3898
VZweilous
p3899
sVpoisonjab
p3900
VPoison Jab
p3901
sVcameruptmega
p3902
VCamerupt-Mega
p3903
sVprotectivepads
p3904
VProtective Pads
p3905
sVcrucibellemega
p3906
VCrucibelle-Mega
p3907
sVadrenalineorb
p3908
VAdrenaline Orb
p3909
sVleechseed
p3910
VLeech Seed
p3911
sVgorebyss
p3912
VGorebyss
p3913
sVfomantis
p3914
VFomantis
p3915
sVdedenne
p3916
VDedenne
p3917
sVcinderace
p3918
VCinderace
p3919
sVpikachu
p3920
VPikachu
p3921
sVrayquaza
p3922
VRayquaza
p3923
sVfroakie
p3924
VFroakie
p3925
sVloveball
p3926
VLove Ball
p3927
sVjumpluff
p3928
VJumpluff
p3929
sVkomala
p3930
VKomala
p3931
sVtoxtricitygmax
p3932
VToxtricity-Gmax
p3933
sVtimid
p3934
VTimid
p3935
sVmismagius
p3936
VMismagius
p3937
sVhiddenpowerbug
p3938
VHidden Power Bug
p3939
sVinfiltrator
p3940
VInfiltrator
p3941
sVpsychup
p3942
VPsych Up
p3943
sVsunstone
p3944
VSun Stone
p3945
sVtangrowth
p3946
VTangrowth
p3947
sVfiregem
p3948
VFire Gem
p3949
sVshellder
p3950
VShellder
p3951
sVwithdraw
p3952
VWithdraw
p3953
sVmoonball
p3954
VMoon Ball
p3955
sVpainsplit
p3956
VPain Split
p3957
sVsteelyspirit
p3958
VSteely Spirit
p3959
sVariados
p3960
VAriados
p3961
sVstoneedge
p3962
VStone Edge
p3963
sVhowl
p3964
VHowl
p3965
sVeeviumz
p3966
VEevium Z
p3967
sVwaterpledge
p3968
VWater Pledge
p3969
sVspearow
p3970
VSpearow
p3971
sVdarmanitan
p3972
VDarmanitan
p3973
sVrockwrecker
p3974
VRock Wrecker
p3975
sVoriginpulse
p3976
VOrigin Pulse
p3977
sVcompetitive
p3978
VCompetitive
p3979
sVzygarde
p3980
VZygarde
p3981
sVsolrock
p3982
VSolrock
p3983
sVthousandarrows
p3984
VThousand Arrows
p3985
sVpoltergeist
p3986
VPoltergeist
p3987
sVpachirisu
p3988
VPachirisu
p3989
sVsmokomodo
p3990
VSmokomodo
p3991
sVlanturn
p3992
VLanturn
p3993
sVcut
p3994
VCut
p3995
sVincineroar
p3996
VIncineroar
p3997
sVmirrorarmor
p3998
VMirror Armor
p3999
sVcloyster
p4000
VCloyster
p4001
sVshoreup
p4002
VShore Up
p4003
sVsnipeshot
p4004
VSnipe Shot
p4005
sVmetapod
p4006
VMetapod
p4007
sVairslash
p4008
VAir Slash
p4009
sVmagiccoat
p4010
VMagic Coat
p4011
sVacrobatics
p4012
VAcrobatics
p4013
sVspheal
p4014
VSpheal
p4015
sVtr59
p4016
VTR59
p4017
sVtr58
p4018
VTR58
p4019
sVmachampgmax
p4020
VMachamp-Gmax
p4021
sVchoicespecs
p4022
VChoice Specs
p4023
sVtr51
p4024
VTR51
p4025
sVtr50
p4026
VTR50
p4027
sVtr53
p4028
VTR53
p4029
sVtr52
p4030
VTR52
p4031
sVtr55
p4032
VTR55
p4033
sVtr54
p4034
VTR54
p4035
sVtr57
p4036
VTR57
p4037
sVtr56
p4038
VTR56
p4039
sVzacian
p4040
VZacian
p4041
sVlusterpurge
p4042
VLuster Purge
p4043
sVkeldeoresolute
p4044
VKeldeo-Resolute
p4045
sVzygardecomplete
p4046
VZygarde-Complete
p4047
sVmoody
p4048
VMoody
p4049
sVglaliemega
p4050
VGlalie-Mega
p4051
sVgothitelle
p4052
VGothitelle
p4053
sVskilllink
p4054
VSkill Link
p4055
sVponyta
p4056
VPonyta
p4057
sVpaleowave
p4058
VPaleo Wave
p4059
sVsubmission
p4060
VSubmission
p4061
sVstaravia
p4062
VStaravia
p4063
sVtailglow
p4064
VTail Glow
p4065
sVnoibat
p4066
VNoibat
p4067
sVstealthrock
p4068
VStealth Rock
p4069
sVtechnoblast
p4070
VTechno Blast
p4071
sVbaltoy
p4072
VBaltoy
p4073
sVflamewheel
p4074
VFlame Wheel
p4075
sVsketch
p4076
VSketch
p4077
sVregigigas
p4078
VRegigigas
p4079
sVmagmarizer
p4080
VMagmarizer
p4081
sVspiritbreak
p4082
VSpirit Break
p4083
sVmaxairstream
p4084
VMax Airstream
p4085
sVpansage
p4086
VPansage
p4087
sVbounce
p4088
VBounce
p4089
sVphotongeyser
p4090
VPhoton Geyser
p4091
sVsouldew
p4092
VSoul Dew
p4093
sVgearup
p4094
VGear Up
p4095
sVsewaddle
p4096
VSewaddle
p4097
sVkommoo
p4098
VKommo-o
p4099
sVscald
p4100
VScald
p4101
sVominouswind
p4102
VOminous Wind
p4103
sVdeepseascale
p4104
VDeep Sea Scale
p4105
sVmummy
p4106
VMummy
p4107
sVhuntail
p4108
VHuntail
p4109
sVswordsdance
p4110
VSwords Dance
p4111
sVworkup
p4112
VWork Up
p4113
sVslash
p4114
VSlash
p4115
sVhiddenpowergrass
p4116
VHidden Power Grass
p4117
sVpidgeotite
p4118
VPidgeotite
p4119
sVgarchompmega
p4120
VGarchomp-Mega
p4121
sV10000000voltthunderbolt
p4122
V10,000,000 Volt Thunderbolt
p4123
sVzamazenta
p4124
VZamazenta
p4125
sVoricoriopau
p4126
VOricorio-Pa'u
p4127
sVseismitoad
p4128
VSeismitoad
p4129
sVodorsleuth
p4130
VOdor Sleuth
p4131
sVmewtwomegax
p4132
VMewtwo-Mega-X
p4133
sVmewtwomegay
p4134
VMewtwo-Mega-Y
p4135
sVfocussash
p4136
VFocus Sash
p4137
sVjellicent
p4138
VJellicent
p4139
sVspelonberry
p4140
VSpelon Berry
p4141
sVgenesectburn
p4142
VGenesect-Burn
p4143
sVnobleroar
p4144
VNoble Roar
p4145
sVkangaskhanite
p4146
VKangaskhanite
p4147
sVblazekick
p4148
VBlaze Kick
p4149
sViapapaberry
p4150
VIapapa Berry
p4151
sVmudkip
p4152
VMudkip
p4153
sVlibero
p4154
VLibero
p4155
sVbouffalant
p4156
VBouffalant
p4157
sVarceusghost
p4158
VArceus-Ghost
p4159
sVblock
p4160
VBlock
p4161
sVsharpedo
p4162
VSharpedo
p4163
sVarmthrust
p4164
VArm Thrust
p4165
sVchargebeam
p4166
VCharge Beam
p4167
sVshellos
p4168
VShellos
p4169
sVnidoking
p4170
VNidoking
p4171
sVeternatuseternamax
p4172
VEternatus-Eternamax
p4173
sVliquidation
p4174
VLiquidation
p4175
sVdynamaxcannon
p4176
VDynamax Cannon
p4177
sVsablenite
p4178
VSablenite
p4179
sVbarboach
p4180
VBarboach
p4181
sVstench
p4182
VStench
p4183
sViciclecrash
p4184
VIcicle Crash
p4185
sVcacnea
p4186
VCacnea
p4187
sVferrothorn
p4188
VFerrothorn
p4189
sVswampertmega
p4190
VSwampert-Mega
p4191
sVpajantom
p4192
VPajantom
p4193
sVpokestarmonster
p4194
VPokestar Monster
p4195
sVsyclar
p4196
VSyclar
p4197
sVmimicry
p4198
VMimicry
p4199
sVdarmanitangalarzen
p4200
VDarmanitan-Galar-Zen
p4201
sVdubwool
p4202
VDubwool
p4203
sVsnorunt
p4204
VSnorunt
p4205
sVrelaxed
p4206
VRelaxed
p4207
sVeevee
p4208
VEevee
p4209
sVpsychocut
p4210
VPsycho Cut
p4211
sVtranquill
p4212
VTranquill
p4213
sVragepowder
p4214
VRage Powder
p4215
sVbuizel
p4216
VBuizel
p4217
sVsharpen
p4218
VSharpen
p4219
sVgrasspledge
p4220
VGrass Pledge
p4221
sVbuzzwole
p4222
VBuzzwole
p4223
sVabsolmega
p4224
VAbsol-Mega
p4225
sVdauntlessshield
p4226
VDauntless Shield
p4227
sVwatchog
p4228
VWatchog
p4229
sVsturdy
p4230
VSturdy
p4231
sVspacialrend
p4232
VSpacial Rend
p4233
sVforesight
p4234
VForesight
p4235
sVgrowth
p4236
VGrowth
p4237
sVskarmory
p4238
VSkarmory
p4239
sVpoliwrath
p4240
VPoliwrath
p4241
sVhappyhour
p4242
VHappy Hour
p4243
sVmurkrow
p4244
VMurkrow
p4245
sVgrimeralola
p4246
VGrimer-Alola
p4247
sVpechaberry
p4248
VPecha Berry
p4249
sVpikachusinnoh
p4250
VPikachu-Sinnoh
p4251
sVarceusfairy
p4252
VArceus-Fairy
p4253
sVovalstone
p4254
VOval Stone
p4255
sVgmaxchistrike
p4256
VG-Max Chi Strike
p4257
sVmiracleseed
p4258
VMiracle Seed
p4259
sVnaturesmadness
p4260
VNature's Madness
p4261
sVdracozolt
p4262
VDracozolt
p4263
sVrockhead
p4264
VRock Head
p4265
sVcalm
p4266
VCalm
p4267
sVstickybarb
p4268
VSticky Barb
p4269
sVganlonberry
p4270
VGanlon Berry
p4271
sVbulbasaur
p4272
VBulbasaur
p4273
sVgarbodorgmax
p4274
VGarbodor-Gmax
p4275
sVscorbunny
p4276
VScorbunny
p4277
sVribbonsweet
p4278
VRibbon Sweet
p4279
sVpichu
p4280
VPichu
p4281
sVheatwave
p4282
VHeat Wave
p4283
sVpokestarf00
p4284
VPokestar F-00
p4285
sVdrifloon
p4286
VDrifloon
p4287
sVsnowcloak
p4288
VSnow Cloak
p4289
sVrazorshell
p4290
VRazor Shell
p4291
sVsandacondagmax
p4292
VSandaconda-Gmax
p4293
sVmetagross
p4294
VMetagross
p4295
sVsparklingaria
p4296
VSparkling Aria
p4297
sVswirlpool
p4298
VSwirlpool
p4299
sVmaxdarkness
p4300
VMax Darkness
p4301
sVpokestarufo
p4302
VPokestar UFO
p4303
sVmeowsticf
p4304
VMeowstic-F
p4305
sVlickilicky
p4306
VLickilicky
p4307
sVaccelgor
p4308
VAccelgor
p4309
sVmysteryberry
p4310
VMystery Berry
p4311
sVurshifugmax
p4312
VUrshifu-Gmax
p4313
sVmudbray
p4314
VMudbray
p4315
sVprecipiceblades
p4316
VPrecipice Blades
p4317
sVslaking
p4318
VSlaking
p4319
sVavalugg
p4320
VAvalugg
p4321
sVscratch
p4322
VScratch
p4323
sVplusle
p4324
VPlusle
p4325
sVcharmeleon
p4326
VCharmeleon
p4327
sVhighhorsepower
p4328
VHigh Horsepower
p4329
sVshiinotic
p4330
VShiinotic
p4331
sVnormaliumz
p4332
VNormalium Z
p4333
sVcharmander
p4334
VCharmander
p4335
sVspeedboost
p4336
VSpeed Boost
p4337
sVwakeupslap
p4338
VWake-Up Slap
p4339
sVpsychicgem
p4340
VPsychic Gem
p4341
sVharvest
p4342
VHarvest
p4343
sVperishsong
p4344
VPerish Song
p4345
sVcutecharm
p4346
VCute Charm
p4347
sVblaze
p4348
VBlaze
p4349
sVquickdraw
p4350
VQuick Draw
p4351
sVsniper
p4352
VSniper
p4353
sVtriplekick
p4354
VTriple Kick
p4355
sVdarumaka
p4356
VDarumaka
p4357
sVnightslash
p4358
VNight Slash
p4359
sVextrasensory
p4360
VExtrasensory
p4361
sVtr42
p4362
VTR42
p4363
sVteddiursa
p4364
VTeddiursa
p4365
sVthundershock
p4366
VThunder Shock
p4367
sVstonjourner
p4368
VStonjourner
p4369
sVazurill
p4370
VAzurill
p4371
sVbigpecks
p4372
VBig Pecks
p4373
sVlureball
p4374
VLure Ball
p4375
sVqwilfish
p4376
VQwilfish
p4377
sVhyperbeam
p4378
VHyper Beam
p4379
sVdynamicpunch
p4380
VDynamic Punch
p4381
sVlurantistotem
p4382
VLurantis-Totem
p4383
sVmagnemite
p4384
VMagnemite
p4385
sVtyrunt
p4386
VTyrunt
p4387
sVirondefense
p4388
VIron Defense
p4389
sVmisdreavus
p4390
VMisdreavus
p4391
sVunseenfist
p4392
VUnseen Fist
p4393
sVdousedrive
p4394
VDouse Drive
p4395
sVribombeetotem
p4396
VRibombee-Totem
p4397
sVcrushclaw
p4398
VCrush Claw
p4399
sVsoftboiled
p4400
VSoft-Boiled
p4401
sVarctovish
p4402
VArctovish
p4403
sVpoisongem
p4404
VPoison Gem
p4405
sVtectonicrage
p4406
VTectonic Rage
p4407
sVdownload
p4408
VDownload
p4409
sVburningjealousy
p4410
VBurning Jealousy
p4411
sVacid
p4412
VAcid
p4413
sVvigoroth
p4414
VVigoroth
p4415
sVmusharna
p4416
VMusharna
p4417
sVjumbao
p4418
VJumbao
p4419
sVlombre
p4420
VLombre
p4421
sVbaddybad
p4422
VBaddy Bad
p4423
sVdelcatty
p4424
VDelcatty
p4425
sVhoundoominite
p4426
VHoundoominite
p4427
sVturtonator
p4428
VTurtonator
p4429
sVgmaxtartness
p4430
VG-Max Tartness
p4431
sVtriattack
p4432
VTri Attack
p4433
sVtyranitar
p4434
VTyranitar
p4435
sVturtwig
p4436
VTurtwig
p4437
sVbruxish
p4438
VBruxish
p4439
sVsizzlipede
p4440
VSizzlipede
p4441
sVmagmastorm
p4442
VMagma Storm
p4443
sVpansear
p4444
VPansear
p4445
sVdeerling
p4446
VDeerling
p4447
sVswinub
p4448
VSwinub
p4449
sVgigavolthavoc
p4450
VGigavolt Havoc
p4451
sVsplishysplash
p4452
VSplishy Splash
p4453
sVsweetapple
p4454
VSweet Apple
p4455
sVservine
p4456
VServine
p4457
sVabomasnow
p4458
VAbomasnow
p4459
sVrowlet
p4460
VRowlet
p4461
sVsing
p4462
VSing
p4463
sVtriage
p4464
VTriage
p4465
sVpowersplit
p4466
VPower Split
p4467
sVincinerate
p4468
VIncinerate
p4469
sVmarangaberry
p4470
VMaranga Berry
p4471
sVkubfu
p4472
VKubfu
p4473
sVgossifleur
p4474
VGossifleur
p4475
sVrampardos
p4476
VRampardos
p4477
sVscreech
p4478
VScreech
p4479
sVtentacruel
p4480
VTentacruel
p4481
sVcramorant
p4482
VCramorant
p4483
sVnaturalcure
p4484
VNatural Cure
p4485
sVarticuno
p4486
VArticuno
p4487
sVforestscurse
p4488
VForest's Curse
p4489
sVblizzard
p4490
VBlizzard
p4491
sVteeterdance
p4492
VTeeter Dance
p4493
sVshieldsdown
p4494
VShields Down
p4495
sVfoongus
p4496
VFoongus
p4497
sVfirememory
p4498
VFire Memory
p4499
sVaquaring
p4500
VAqua Ring
p4501
sVprzcureberry
p4502
VPRZ Cure Berry
p4503
sVhardy
p4504
VHardy
p4505
sVarceusground
p4506
VArceus-Ground
p4507
sVpumpkaboolarge
p4508
VPumpkaboo-Large
p4509
sVkingdra
p4510
VKingdra
p4511
sVtr82
p4512
VTR82
p4513
sVtr83
p4514
VTR83
p4515
sVtr80
p4516
VTR80
p4517
sVtr81
p4518
VTR81
p4519
sVtr86
p4520
VTR86
p4521
sVtr87
p4522
VTR87
p4523
sVtr84
p4524
VTR84
p4525
sVtr85
p4526
VTR85
p4527
sVtr88
p4528
VTR88
p4529
sVtr89
p4530
VTR89
p4531
sVaerodactylite
p4532
VAerodactylite
p4533
sVstakeout
p4534
VStakeout
p4535
sVbanettite
p4536
VBanettite
p4537
sVdragongem
p4538
VDragon Gem
p4539
sVheatran
p4540
VHeatran
p4541
sVsteelixite
p4542
VSteelixite
p4543
sVpropellertail
p4544
VPropeller Tail
p4545
sVheavyball
p4546
VHeavy Ball
p4547
sVcharcoal
p4548
VCharcoal
p4549
sVdubiousdisc
p4550
VDubious Disc
p4551
sVmistyseed
p4552
VMisty Seed
p4553
sVgmaxsmite
p4554
VG-Max Smite
p4555
sVcranidos
p4556
VCranidos
p4557
sVabsol
p4558
VAbsol
p4559
sVcelesteela
p4560
VCelesteela
p4561
sVfalsesurrender
p4562
VFalse Surrender
p4563
sVaerodactylmega
p4564
VAerodactyl-Mega
p4565
sVrivalry
p4566
VRivalry
p4567
sVwatersport
p4568
VWater Sport
p4569
sVpikaniumz
p4570
VPikanium Z
p4571
sVicicleplate
p4572
VIcicle Plate
p4573
sVmimikyubustedtotem
p4574
VMimikyu-Busted-Totem
p4575
sVfuturesight
p4576
VFuture Sight
p4577
sVfirelash
p4578
VFire Lash
p4579
sVsmellingsalts
p4580
VSmelling Salts
p4581
sVmistysurge
p4582
VMisty Surge
p4583
sVarchen
p4584
VArchen
p4585
sVexeggcute
p4586
VExeggcute
p4587
sVlucario
p4588
VLucario
p4589
sVthundurus
p4590
VThundurus
p4591
sVsyclant
p4592
VSyclant
p4593
sVburnup
p4594
VBurn Up
p4595
sVdonphan
p4596
VDonphan
p4597
sVterrakion
p4598
VTerrakion
p4599
sVblacksludge
p4600
VBlack Sludge
p4601
sVhaunter
p4602
VHaunter
p4603
sVsilvallypsychic
p4604
VSilvally-Psychic
p4605
sVrelicsong
p4606
VRelic Song
p4607
sVsnaelstrom
p4608
VSnaelstrom
p4609
sVmaxovergrowth
p4610
VMax Overgrowth
p4611
sVheliolisk
p4612
VHeliolisk
p4613
sVaerilate
p4614
VAerilate
p4615
sVblazikenmega
p4616
VBlaziken-Mega
p4617
sVgastrodon
p4618
VGastrodon
p4619
sVbronzong
p4620
VBronzong
p4621
sVweavile
p4622
VWeavile
p4623
sVhungerswitch
p4624
VHunger Switch
p4625
sVnoctowl
p4626
VNoctowl
p4627
sVchandelure
p4628
VChandelure
p4629
sVutilityumbrella
p4630
VUtility Umbrella
p4631
sVsecretsword
p4632
VSecret Sword
p4633
sVowntempo
p4634
VOwn Tempo
p4635
sVhiddenpower
p4636
VHidden Power
p4637
sVrazorleaf
p4638
VRazor Leaf
p4639
sVpowerswap
p4640
VPower Swap
p4641
sVdragalge
p4642
VDragalge
p4643
sVgrasswhistle
p4644
VGrass Whistle
p4645
sVroserade
p4646
VRoserade
p4647
sVwynaut
p4648
VWynaut
p4649
sVpidgey
p4650
VPidgey
p4651
sVpoisoniumz
p4652
VPoisonium Z
p4653
sVsinistea
p4654
VSinistea
p4655
sVaggronite
p4656
VAggronite
p4657
sVgenesect
p4658
VGenesect
p4659
sVlotad
p4660
VLotad
p4661
sVquilava
p4662
VQuilava
p4663
sVrkssystem
p4664
VRKS System
p4665
sVsilvallyice
p4666
VSilvally-Ice
p4667
sVvikavolttotem
p4668
VVikavolt-Totem
p4669
sVbind
p4670
VBind
p4671
sVcounter
p4672
VCounter
p4673
sVvikavolt
p4674
VVikavolt
p4675
sVfullincense
p4676
VFull Incense
p4677
sVfloatoy
p4678
VFloatoy
p4679
sVweepinbell
p4680
VWeepinbell
p4681
sVhitmonchan
p4682
VHitmonchan
p4683
sVfreezyfrost
p4684
VFreezy Frost
p4685
sVwoobat
p4686
VWoobat
p4687
sVstratagem
p4688
VStratagem
p4689
sVaquajet
p4690
VAqua Jet
p4691
sVkrabby
p4692
VKrabby
p4693
sVdewott
p4694
VDewott
p4695
sVdragonair
p4696
VDragonair
p4697
sVpyroar
p4698
VPyroar
p4699
sVhitmontop
p4700
VHitmontop
p4701
sVheatproof
p4702
VHeatproof
p4703
sVcentiskorch
p4704
VCentiskorch
p4705
sVillumise
p4706
VIllumise
p4707
sVmukalola
p4708
VMuk-Alola
p4709
sVguardswap
p4710
VGuard Swap
p4711
sVassaultvest
p4712
VAssault Vest
p4713
sVfarfetchdgalar
p4714
VFarfetch\u2019d-Galar
p4715
sVpetalblizzard
p4716
VPetal Blizzard
p4717
sVkadabra
p4718
VKadabra
p4719
sVpurepower
p4720
VPure Power
p4721
sVironball
p4722
VIron Ball
p4723
sVdreameater
p4724
VDream Eater
p4725
sVhelpinghand
p4726
VHelping Hand
p4727
sVmunchlax
p4728
VMunchlax
p4729
sVduraludongmax
p4730
VDuraludon-Gmax
p4731
sVequilibra
p4732
VEquilibra
p4733
sVzenheadbutt
p4734
VZen Headbutt
p4735
sVbelch
p4736
VBelch
p4737
sVpowertrip
p4738
VPower Trip
p4739
sVponytagalar
p4740
VPonyta-Galar
p4741
sVberryjuice
p4742
VBerry Juice
p4743
sVhiddenpowerflying
p4744
VHidden Power Flying
p4745
sVmilotic
p4746
VMilotic
p4747
sVpikachuoriginal
p4748
VPikachu-Original
p4749
sVpsychicsurge
p4750
VPsychic Surge
p4751
sVflail
p4752
VFlail
p4753
sVhaxorus
p4754
VHaxorus
p4755
sVhoothoot
p4756
VHoothoot
p4757
sVkoffing
p4758
VKoffing
p4759
sVtoxapex
p4760
VToxapex
p4761
sVarbok
p4762
VArbok
p4763
sVmagnitude
p4764
VMagnitude
p4765
sVarceusfighting
p4766
VArceus-Fighting
p4767
sVrapidspin
p4768
VRapid Spin
p4769
sVskullbash
p4770
VSkull Bash
p4771
sVdratini
p4772
VDratini
p4773
sVafteryou
p4774
VAfter You
p4775
sVmaractus
p4776
VMaractus
p4777
sVcrucibellite
p4778
VCrucibellite
p4779
sVmareanie
p4780
VMareanie
p4781
sVgrassysurge
p4782
VGrassy Surge
p4783
sVgallademega
p4784
VGallade-Mega
p4785
sVmagnetpull
p4786
VMagnet Pull
p4787
sVtepig
p4788
VTepig
p4789
sVkelpsyberry
p4790
VKelpsy Berry
p4791
sVstatic
p4792
VStatic
p4793
sVflameplate
p4794
VFlame Plate
p4795
sVicefang
p4796
VIce Fang
p4797
sVvenonat
p4798
VVenonat
p4799
sVsilvallyfighting
p4800
VSilvally-Fighting
p4801
sVjoltik
p4802
VJoltik
p4803
sVrollingkick
p4804
VRolling Kick
p4805
sVoricorio
p4806
VOricorio
p4807
sVweatherball
p4808
VWeather Ball
p4809
sVshatteredpsyche
p4810
VShattered Psyche
p4811
sVmewniumz
p4812
VMewnium Z
p4813
sVmanectric
p4814
VManectric
p4815
sVnaturepower
p4816
VNature Power
p4817
sVregisteel
p4818
VRegisteel
p4819
sVsmog
p4820
VSmog
p4821
sVbabydolleyes
p4822
VBaby-Doll Eyes
p4823
sVleafguard
p4824
VLeaf Guard
p4825
sVicywind
p4826
VIcy Wind
p4827
sVemolga
p4828
VEmolga
p4829
sVconkeldurr
p4830
VConkeldurr
p4831
sVduskstone
p4832
VDusk Stone
p4833
sVmetagrossite
p4834
VMetagrossite
p4835
sVhippowdon
p4836
VHippowdon
p4837
sVenigmaberry
p4838
VEnigma Berry
p4839
sVscatterbug
p4840
VScatterbug
p4841
sVlashout
p4842
VLash Out
p4843
sVsteelmemory
p4844
VSteel Memory
p4845
sVtropkick
p4846
VTrop Kick
p4847
sVsudowoodo
p4848
VSudowoodo
p4849
sVlarvitar
p4850
VLarvitar
p4851
sVheadbutt
p4852
VHeadbutt
p4853
sVsurgesurfer
p4854
VSurge Surfer
p4855
sVbodyslam
p4856
VBody Slam
p4857
sVbugbuzz
p4858
VBug Buzz
p4859
sVeiscue
p4860
VEiscue
p4861
sVfirefang
p4862
VFire Fang
p4863
sVaurawheel
p4864
VAura Wheel
p4865
sVdiancite
p4866
VDiancite
p4867
sVampharosmega
p4868
VAmpharos-Mega
p4869
sVmistball
p4870
VMist Ball
p4871
sVyamper
p4872
VYamper
p4873
sVskrelp
p4874
VSkrelp
p4875
sVjumpkick
p4876
VJump Kick
p4877
sVimpidimp
p4878
VImpidimp
p4879
sVwaterspout
p4880
VWater Spout
p4881
sVpsychicmemory
p4882
VPsychic Memory
p4883
sVloudred
p4884
VLoudred
p4885
sVearthpower
p4886
VEarth Power
p4887
sVblissey
p4888
VBlissey
p4889
sVpikachukalos
p4890
VPikachu-Kalos
p4891
sVpremierball
p4892
VPremier Ball
p4893
sVrotomfrost
p4894
VRotom-Frost
p4895
sVsolidrock
p4896
VSolid Rock
p4897
sVhonedge
p4898
VHonedge
p4899
sVrabutaberry
p4900
VRabuta Berry
p4901
sVagility
p4902
VAgility
p4903
sVelectabuzz
p4904
VElectabuzz
p4905
sVhoopaunbound
p4906
VHoopa-Unbound
p4907
sVgmaxfoamburst
p4908
VG-Max Foam Burst
p4909
sVsachet
p4910
VSachet
p4911
sVcrobat
p4912
VCrobat
p4913
sVrockblast
p4914
VRock Blast
p4915
sVslackoff
p4916
VSlack Off
p4917
sVprivatyke
p4918
VPrivatyke
p4919
sVsoftsand
p4920
VSoft Sand
p4921
sVsigilyph
p4922
VSigilyph
p4923
sVdeepseatooth
p4924
VDeep Sea Tooth
p4925
sVtorkoal
p4926
VTorkoal
p4927
sVwurmple
p4928
VWurmple
p4929
sVpikachuworld
p4930
VPikachu-World
p4931
sVsunsteelstrike
p4932
VSunsteel Strike
p4933
sVtr99
p4934
VTR99
p4935
sVtr98
p4936
VTR98
p4937
sVtr95
p4938
VTR95
p4939
sVtr94
p4940
VTR94
p4941
sVtr97
p4942
VTR97
p4943
sVtr96
p4944
VTR96
p4945
sVtr91
p4946
VTR91
p4947
sVtr90
p4948
VTR90
p4949
sVtr93
p4950
VTR93
p4951
sVtr92
p4952
VTR92
p4953
sVpoisonfang
p4954
VPoison Fang
p4955
sVinsectplate
p4956
VInsect Plate
p4957
sVtorrent
p4958
VTorrent
p4959
sVencore
p4960
VEncore
p4961
sVquickball
p4962
VQuick Ball
p4963
sVtrapinch
p4964
VTrapinch
p4965
sVbonerush
p4966
VBone Rush
p4967
sVgentle
p4968
VGentle
p4969
sVmeowthgalar
p4970
VMeowth-Galar
p4971
sVtorment
p4972
VTorment
p4973
sVarceusflying
p4974
VArceus-Flying
p4975
sVzebstrika
p4976
VZebstrika
p4977
sVwhitesmoke
p4978
VWhite Smoke
p4979
sVlevelball
p4980
VLevel Ball
p4981
sVsoak
p4982
VSoak
p4983
sVfusionbolt
p4984
VFusion Bolt
p4985
sVflareon
p4986
VFlareon
p4987
sVcalmmind
p4988
VCalm Mind
p4989
sVdiamondstorm
p4990
VDiamond Storm
p4991
sVgravity
p4992
VGravity
p4993
sVcarnivine
p4994
VCarnivine
p4995
sVgrimmsnarlgmax
p4996
VGrimmsnarl-Gmax
p4997
sVgrassgem
p4998
VGrass Gem
p4999
sVfleurcannon
p5000
VFleur Cannon
p5001
sVpsychoboost
p5002
VPsycho Boost
p5003
sVnuzleaf
p5004
VNuzleaf
p5005
sVwidelens
p5006
VWide Lens
p5007
sVurshifurapidstrike
p5008
VUrshifu-Rapid-Strike
p5009
sVshadowball
p5010
VShadow Ball
p5011
sVdrifblim
p5012
VDrifblim
p5013
sVgoldeen
p5014
VGoldeen
p5015
sVmewtwo
p5016
VMewtwo
p5017
sVcufant
p5018
VCufant
p5019
sVrollout
p5020
VRollout
p5021
sVslurpuff
p5022
VSlurpuff
p5023
sVdracometeor
p5024
VDraco Meteor
p5025
sVsludgewave
p5026
VSludge Wave
p5027
sVsceptile
p5028
VSceptile
p5029
sVgmaxfireball
p5030
VG-Max Fire Ball
p5031
sVaraquanid
p5032
VAraquanid
p5033
sVgardevoirite
p5034
VGardevoirite
p5035
sVrookidee
p5036
VRookidee
p5037
sVexeggutor
p5038
VExeggutor
p5039
sVshedskin
p5040
VShed Skin
p5041
sVcherrimsunshine
p5042
VCherrim-Sunshine
p5043
sVarceus
p5044
VArceus
p5045
sVimpish
p5046
VImpish
p5047
sVgmaxterror
p5048
VG-Max Terror
p5049
sVwailmer
p5050
VWailmer
p5051
sVexpandingforce
p5052
VExpanding Force
p5053
sVbrine
p5054
VBrine
p5055
sVdawnstone
p5056
VDawn Stone
p5057
sVsleeppowder
p5058
VSleep Powder
p5059
sVoldamber
p5060
VOld Amber
p5061
sVsnover
p5062
VSnover
p5063
sVmumbao
p5064
VMumbao
p5065
sVdurant
p5066
VDurant
p5067
sVdarkiniumz
p5068
VDarkinium Z
p5069
sVsimplebeam
p5070
VSimple Beam
p5071
sVtimburr
p5072
VTimburr
p5073
sVsheercold
p5074
VSheer Cold
p5075
sVbrickbreak
p5076
VBrick Break
p5077
sVrash
p5078
VRash
p5079
sVpiplup
p5080
VPiplup
p5081
sVflashfire
p5082
VFlash Fire
p5083
sVgmaxmeltdown
p5084
VG-Max Meltdown
p5085
sVelectricmemory
p5086
VElectric Memory
p5087
sValoraichiumz
p5088
VAloraichium Z
p5089
sVpikipek
p5090
VPikipek
p5091
sVdeino
p5092
VDeino
p5093
sVcamerupt
p5094
VCamerupt
p5095
sVluckypunch
p5096
VLucky Punch
p5097
sVpurrloin
p5098
VPurrloin
p5099
sVrarebone
p5100
VRare Bone
p5101
sVsolosis
p5102
VSolosis
p5103
sVbellydrum
p5104
VBelly Drum
p5105
sVsassy
p5106
VSassy
p5107
sVumbreon
p5108
VUmbreon
p5109
sVdeoxysattack
p5110
VDeoxys-Attack
p5111
sVcroagunk
p5112
VCroagunk
p5113
sVbravebird
p5114
VBrave Bird
p5115
sVroomservice
p5116
VRoom Service
p5117
sVmagicguard
p5118
VMagic Guard
p5119
sVpikapapow
p5120
VPika Papow
p5121
sVswampert
p5122
VSwampert
p5123
sVsandattack
p5124
VSand Attack
p5125
sVkingler
p5126
VKingler
p5127
sVberrysweet
p5128
VBerry Sweet
p5129
sVhugepower
p5130
VHuge Power
p5131
sVmudbomb
p5132
VMud Bomb
p5133
sVvictreebel
p5134
VVictreebel
p5135
sVdartrix
p5136
VDartrix
p5137
sVrisingvoltage
p5138
VRising Voltage
p5139
sVgeomancy
p5140
VGeomancy
p5141
sVleafstone
p5142
VLeaf Stone
p5143
sVcacturne
p5144
VCacturne
p5145
sVpowder
p5146
VPowder
p5147
sVvictini
p5148
VVictini
p5149
sVfinneon
p5150
VFinneon
p5151
sVtwineedle
p5152
VTwineedle
p5153
sVchestoberry
p5154
VChesto Berry
p5155
sVgrumpig
p5156
VGrumpig
p5157
sVbuginiumz
p5158
VBuginium Z
p5159
sVnightmare
p5160
VNightmare
p5161
sVgyarados
p5162
VGyarados
p5163
sVlycaniumz
p5164
VLycanium Z
p5165
sVvaporeon
p5166
VVaporeon
p5167
sVthunderwave
p5168
VThunder Wave
p5169
sVrockincense
p5170
VRock Incense
p5171
sVfroslass
p5172
VFroslass
p5173
sVsobble
p5174
VSobble
p5175
sVaron
p5176
VAron
p5177
sVconversion2
p5178
VConversion 2
p5179
sVmysticalfire
p5180
VMystical Fire
p5181
sVzoroark
p5182
VZoroark
p5183
sVshellsmash
p5184
VShell Smash
p5185
sVsirfetchd
p5186
VSirfetch\u2019d
p5187
sVhydropump
p5188
VHydro Pump
p5189
sVgmaxwindrage
p5190
VG-Max Wind Rage
p5191
sVswift
p5192
VSwift
p5193
sVmemento
p5194
VMemento
p5195
sVmetang
p5196
VMetang
p5197
sVklinklang
p5198
VKlinklang
p5199
sVaerodactyl
p5200
VAerodactyl
p5201
sVpoisonheal
p5202
VPoison Heal
p5203
sVsceptilite
p5204
VSceptilite
p5205
sVsafetygoggles
p5206
VSafety Goggles
p5207
sVrockruff
p5208
VRockruff
p5209
sVklang
p5210
VKlang
p5211
sVgreninjaash
p5212
VGreninja-Ash
p5213
sVswallow
p5214
VSwallow
p5215
sVspritzee
p5216
VSpritzee
p5217
sVflabebe
p5218
VFlabe\u0301be\u0301
p5219
sVtr60
p5220
VTR60
p5221
sVnumel
p5222
VNumel
p5223
sVwoodhammer
p5224
VWood Hammer
p5225
sVhiddenpowerwater
p5226
VHidden Power Water
p5227
sVmalaconda
p5228
VMalaconda
p5229
sVgible
p5230
VGible
p5231
sVovercoat
p5232
VOvercoat
p5233
sVekans
p5234
VEkans
p5235
sVsharpedomega
p5236
VSharpedo-Mega
p5237
sVpixieplate
p5238
VPixie Plate
p5239
sVsandspit
p5240
VSand Spit
p5241
sVtoxtricitylowkeygmax
p5242
VToxtricity-Low-Key-Gmax
p5243
sVvolkritter
p5244
VVolkritter
p5245
sVtr65
p5246
VTR65
p5247
sVdisarmingvoice
p5248
VDisarming Voice
p5249
sVwailord
p5250
VWailord
p5251
sVswoobat
p5252
VSwoobat
p5253
sVelectrify
p5254
VElectrify
p5255
sVbindingband
p5256
VBinding Band
p5257
sVoricoriosensu
p5258
VOricorio-Sensu
p5259
sVelectrelk
p5260
VElectrelk
p5261
sVyamaskgalar
p5262
VYamask-Galar
p5263
sVrattata
p5264
VRattata
p5265
sVlitten
p5266
VLitten
p5267
sVgirafarig
p5268
VGirafarig
p5269
sVtomohawk
p5270
VTomohawk
p5271
sVivysaur
p5272
VIvysaur
p5273
sVhorndrill
p5274
VHorn Drill
p5275
sVcoverfossil
p5276
VCover Fossil
p5277
sVgraveler
p5278
VGraveler
p5279
sVsmeargle
p5280
VSmeargle
p5281
sVgmaxbefuddle
p5282
VG-Max Befuddle
p5283
sVraindance
p5284
VRain Dance
p5285
sVbreezi
p5286
VBreezi
p5287
sVinfestation
p5288
VInfestation
p5289
sVvoodoll
p5290
VVoodoll
p5291
sVpresent
p5292
VPresent
p5293
sVgrovyle
p5294
VGrovyle
p5295
sVneutralizinggas
p5296
VNeutralizing Gas
p5297
sVpokestarf002
p5298
VPokestar F-002
p5299
sVintimidate
p5300
VIntimidate
p5301
sVdottler
p5302
VDottler
p5303
sVripen
p5304
VRipen
p5305
sVharden
p5306
VHarden
p5307
sVpowerweight
p5308
VPower Weight
p5309
sVflaaffy
p5310
VFlaaffy
p5311
sVbeheeyem
p5312
VBeheeyem
p5313
sVwhirlpool
p5314
VWhirlpool
p5315
sVpelipper
p5316
VPelipper
p5317
sVgulpmissile
p5318
VGulp Missile
p5319
sVthickfat
p5320
VThick Fat
p5321
sVcarracosta
p5322
VCarracosta
p5323
sVluxio
p5324
VLuxio
p5325
sVvullaby
p5326
VVullaby
p5327
sVhiddenpowerghost
p5328
VHidden Power Ghost
p5329
sVlightball
p5330
VLight Ball
p5331
sVwaterveil
p5332
VWater Veil
p5333
sVspelltag
p5334
VSpell Tag
p5335
sVdeoxysdefense
p5336
VDeoxys-Defense
p5337
sVzekrom
p5338
VZekrom
p5339
sVaipom
p5340
VAipom
p5341
sVdefiant
p5342
VDefiant
p5343
sVhardstone
p5344
VHard Stone
p5345
sVkebiaberry
p5346
VKebia Berry
p5347
sVbergmite
p5348
VBergmite
p5349
sVcascoon
p5350
VCascoon
p5351
sVdoubleironbash
p5352
VDouble Iron Bash
p5353
sVmindblown
p5354
VMind Blown
p5355
sVmagcargo
p5356
VMagcargo
p5357
sVabsorb
p5358
VAbsorb
p5359
sVpikachuhoenn
p5360
VPikachu-Hoenn
p5361
sVraindish
p5362
VRain Dish
p5363
sVseaking
p5364
VSeaking
p5365
sVmagician
p5366
VMagician
p5367
sVdragoniumz
p5368
VDragonium Z
p5369
sVairlock
p5370
VAir Lock
p5371
sVbabiriberry
p5372
VBabiri Berry
p5373
sVaspearberry
p5374
VAspear Berry
p5375
sVeelektross
p5376
VEelektross
p5377
sVpickpocket
p5378
VPickpocket
p5379
sVsitrusberry
p5380
VSitrus Berry
p5381
sVarceuspsychic
p5382
VArceus-Psychic
p5383
sVbeautifly
p5384
VBeautifly
p5385
sVwormadamtrash
p5386
VWormadam-Trash
p5387
sVvenoshock
p5388
VVenoshock
p5389
sVsilvallyfairy
p5390
VSilvally-Fairy
p5391
sVbouncybubble
p5392
VBouncy Bubble
p5393
sVmudsport
p5394
VMud Sport
p5395
sVazelf
p5396
VAzelf
p5397
sVzarudedada
p5398
VZarude-Dada
p5399
sVyanmega
p5400
VYanmega
p5401
sVnaviathan
p5402
VNaviathan
p5403
sVfairyaura
p5404
VFairy Aura
p5405
sVthievul
p5406
VThievul
p5407
sVsailfossil
p5408
VSail Fossil
p5409
sVpinsir
p5410
VPinsir
p5411
sVmaxguard
p5412
VMax Guard
p5413
sVrotom
p5414
VRotom
p5415
sVguts
p5416
VGuts
p5417
sVtauros
p5418
VTauros
p5419
sVnatu
p5420
VNatu
p5421
sVfaketears
p5422
VFake Tears
p5423
sVsimple
p5424
VSimple
p5425
sVaromaticmist
p5426
VAromatic Mist
p5427
sVbeedrillite
p5428
VBeedrillite
p5429
sVdeltastream
p5430
VDelta Stream
p5431
sVleechlife
p5432
VLeech Life
p5433
sVaegislash
p5434
VAegislash
p5435
sVkingsshield
p5436
VKing's Shield
p5437
sVkingsrock
p5438
VKing's Rock
p5439
sVblukberry
p5440
VBluk Berry
p5441
sVflowershield
p5442
VFlower Shield
p5443
sVarenatrap
p5444
VArena Trap
p5445
sVtaunt
p5446
VTaunt
p5447
sVlaserfocus
p5448
VLaser Focus
p5449
sVorbeetle
p5450
VOrbeetle
p5451
sVkabutops
p5452
VKabutops
p5453
sVcinderacegmax
p5454
VCinderace-Gmax
p5455
sVgreninja
p5456
VGreninja
p5457
sVreapercloth
p5458
VReaper Cloth
p5459
sVslowpokegalar
p5460
VSlowpoke-Galar
p5461
sVdhelmise
p5462
VDhelmise
p5463
sVgmaxsteelsurge
p5464
VG-Max Steelsurge
p5465
sVgogoat
p5466
VGogoat
p5467
sVlilligant
p5468
VLilligant
p5469
sVillusion
p5470
VIllusion
p5471
sVhattrem
p5472
VHattrem
p5473
sVhealball
p5474
VHeal Ball
p5475
sVphanpy
p5476
VPhanpy
p5477
sVaudinite
p5478
VAudinite
p5479
sVcourtchange
p5480
VCourt Change
p5481
sVimprison
p5482
VImprison
p5483
sVrepeatball
p5484
VRepeat Ball
p5485
sVglare
p5486
VGlare
p5487
sVjangmoo
p5488
VJangmo-o
p5489
sVthief
p5490
VThief
p5491
sVhail
p5492
VHail
p5493
sVcofagrigus
p5494
VCofagrigus
p5495
sVwepearberry
p5496
VWepear Berry
p5497
sVducklett
p5498
VDucklett
p5499
sVoblivious
p5500
VOblivious
p5501
sVdragonclaw
p5502
VDragon Claw
p5503
sVdrizzle
p5504
VDrizzle
p5505
sVzygarde10
p5506
VZygarde-10%
p5507
sVstaraptor
p5508
VStaraptor
p5509
sVmagicalleaf
p5510
VMagical Leaf
p5511
sVrustedshield
p5512
VRusted Shield
p5513
sVforcepalm
p5514
VForce Palm
p5515
sVgrookey
p5516
VGrookey
p5517
sVtripleaxel
p5518
VTriple Axel
p5519
sVhurricane
p5520
VHurricane
p5521
sVlileep
p5522
VLileep
p5523
sVpiloswine
p5524
VPiloswine
p5525
sVstompingtantrum
p5526
VStomping Tantrum
p5527
sVjudgment
p5528
VJudgment
p5529
sVgreedent
p5530
VGreedent
p5531
sVmistyexplosion
p5532
VMisty Explosion
p5533
sVvenusaurite
p5534
VVenusaurite
p5535
sVeiscuenoice
p5536
VEiscue-Noice
p5537
sVraichu
p5538
VRaichu
p5539
sVcyclohm
p5540
VCyclohm
p5541
sVhappiny
p5542
VHappiny
p5543
sVpressure
p5544
VPressure
p5545
sVsilkscarf
p5546
VSilk Scarf
p5547
sVpidgeotto
p5548
VPidgeotto
p5549
sVdreadplate
p5550
VDread Plate
p5551
sVwooloo
p5552
VWooloo
p5553
sVsableyemega
p5554
VSableye-Mega
p5555
sVfurret
p5556
VFurret
p5557
sVgrimmsnarl
p5558
VGrimmsnarl
p5559
sVpsystrike
p5560
VPsystrike
p5561
sVmiltank
p5562
VMiltank
p5563
sVmeteormash
p5564
VMeteor Mash
p5565
sVshucaberry
p5566
VShuca Berry
p5567
sVrockmemory
p5568
VRock Memory
p5569
sVzigzagoongalar
p5570
VZigzagoon-Galar
p5571
sVsweetkiss
p5572
VSweet Kiss
p5573
sVmaxgeyser
p5574
VMax Geyser
p5575
sVmaxwyrmwind
p5576
VMax Wyrmwind
p5577
sVacidarmor
p5578
VAcid Armor
p5579
sVlightclay
p5580
VLight Clay
p5581
sVvoodoom
p5582
VVoodoom
p5583
sVblueorb
p5584
VBlue Orb
p5585
sVfeintattack
p5586
VFeint Attack
p5587
sVburmy
p5588
VBurmy
p5589
sVicememory
p5590
VIce Memory
p5591
sVcaimanoe
p5592
VCaimanoe
p5593
sVgmaxcentiferno
p5594
VG-Max Centiferno
p5595
sVrillaboomgmax
p5596
VRillaboom-Gmax
p5597
sVmagostberry
p5598
VMagost Berry
p5599
sVgrapploct
p5600
VGrapploct
p5601
sVgrasspelt
p5602
VGrass Pelt
p5603
sVicestone
p5604
VIce Stone
p5605
sVspitup
p5606
VSpit Up
p5607
sVstamina
p5608
VStamina
p5609
sVrockthrow
p5610
VRock Throw
p5611
sVmaxooze
p5612
VMax Ooze
p5613
sVroseliberry
p5614
VRoseli Berry
p5615
sVfrustration
p5616
VFrustration
p5617
sVambipom
p5618
VAmbipom
p5619
sVsolgaleo
p5620
VSolgaleo
p5621
sVfollowme
p5622
VFollow Me
p5623
sVclauncher
p5624
VClauncher
p5625
sVfawnifer
p5626
VFawnifer
p5627
sVquickpowder
p5628
VQuick Powder
p5629
sVfrenzyplant
p5630
VFrenzy Plant
p5631
sVfrisk
p5632
VFrisk
p5633
sVrapidashgalar
p5634
VRapidash-Galar
p5635
sVoceanicoperetta
p5636
VOceanic Operetta
p5637
sVmagoberry
p5638
VMago Berry
p5639
sVcroconaw
p5640
VCroconaw
p5641
sVdrowzee
p5642
VDrowzee
p5643
sVserenegrace
p5644
VSerene Grace
p5645
sVheracronite
p5646
VHeracronite
p5647
sVtechnician
p5648
VTechnician
p5649
sVarceusgrass
p5650
VArceus-Grass
p5651
sVmorelull
p5652
VMorelull
p5653
sVembargo
p5654
VEmbargo
p5655
sVpikachuunova
p5656
VPikachu-Unova
p5657
sVmetronome
p5658
VMetronome
p5659
sVattackorder
p5660
VAttack Order
p5661
sVallyswitch
p5662
VAlly Switch
p5663
sVwish
p5664
VWish
p5665
sVpersian
p5666
VPersian
p5667
sVentrainment
p5668
VEntrainment
p5669
sVtailwhip
p5670
VTail Whip
p5671
sVpyukumuku
p5672
VPyukumuku
p5673
sVscizormega
p5674
VScizor-Mega
p5675
sVthroatchop
p5676
VThroat Chop
p5677
sVhoneclaws
p5678
VHone Claws
p5679
sVgrassmemory
p5680
VGrass Memory
p5681
sVpikachurockstar
p5682
VPikachu-Rock-Star
p5683
sVlinoonegalar
p5684
VLinoone-Galar
p5685
sVoranberry
p5686
VOran Berry
p5687
sVmarshadow
p5688
VMarshadow
p5689
sVninjask
p5690
VNinjask
p5691
sVslowstart
p5692
VSlow Start
p5693
sVweakarmor
p5694
VWeak Armor
p5695
sVaurasphere
p5696
VAura Sphere
p5697
sVshelgon
p5698
VShelgon
p5699
sVrawstberry
p5700
VRawst Berry
p5701
sVshadowbone
p5702
VShadow Bone
p5703
sVpokestarblackbelt
p5704
VPokestar Black Belt
p5705
sVvacuumwave
p5706
VVacuum Wave
p5707
sVbranchpoke
p5708
VBranch Poke
p5709
sVroleplay
p5710
VRole Play
p5711
sVyacheberry
p5712
VYache Berry
p5713
sVelectriumz
p5714
VElectrium Z
p5715
sVtreecko
p5716
VTreecko
p5717
sVinteleongmax
p5718
VInteleon-Gmax
p5719
sVwimpout
p5720
VWimp Out
p5721
sVbraviary
p5722
VBraviary
p5723
sVvivillon
p5724
VVivillon
p5725
sVnoguard
p5726
VNo Guard
p5727
sVsalamencemega
p5728
VSalamence-Mega
p5729
sVabomasite
p5730
VAbomasite
p5731
sVstarmie
p5732
VStarmie
p5733
sVpersistent
p5734
VPersistent
p5735
sVmagmar
p5736
VMagmar
p5737
sVzangoose
p5738
VZangoose
p5739
sVvivillonfancy
p5740
VVivillon-Fancy
p5741
sVvanilluxe
p5742
VVanilluxe
p5743
s.